
ctarget:     file format elf64-x86-64


Disassembly of section .init:

0000000000401000 <_init>:
  401000:	48 83 ec 08          	sub    $0x8,%rsp
  401004:	48 8b 05 d5 3f 00 00 	mov    0x3fd5(%rip),%rax        # 404fe0 <__gmon_start__@Base>
  40100b:	48 85 c0             	test   %rax,%rax
  40100e:	74 02                	je     401012 <_init+0x12>
  401010:	ff d0                	call   *%rax
  401012:	48 83 c4 08          	add    $0x8,%rsp
  401016:	c3                   	ret    

Disassembly of section .plt:

0000000000401020 <strcasecmp@plt-0x10>:
  401020:	ff 35 ca 3f 00 00    	push   0x3fca(%rip)        # 404ff0 <_GLOBAL_OFFSET_TABLE_+0x8>
  401026:	ff 25 cc 3f 00 00    	jmp    *0x3fcc(%rip)        # 404ff8 <_GLOBAL_OFFSET_TABLE_+0x10>
  40102c:	0f 1f 40 00          	nopl   0x0(%rax)

0000000000401030 <strcasecmp@plt>:
  401030:	ff 25 ca 3f 00 00    	jmp    *0x3fca(%rip)        # 405000 <strcasecmp@GLIBC_2.2.5>
  401036:	68 00 00 00 00       	push   $0x0
  40103b:	e9 e0 ff ff ff       	jmp    401020 <_init+0x20>

0000000000401040 <__errno_location@plt>:
  401040:	ff 25 c2 3f 00 00    	jmp    *0x3fc2(%rip)        # 405008 <__errno_location@GLIBC_2.2.5>
  401046:	68 01 00 00 00       	push   $0x1
  40104b:	e9 d0 ff ff ff       	jmp    401020 <_init+0x20>

0000000000401050 <srandom@plt>:
  401050:	ff 25 ba 3f 00 00    	jmp    *0x3fba(%rip)        # 405010 <srandom@GLIBC_2.2.5>
  401056:	68 02 00 00 00       	push   $0x2
  40105b:	e9 c0 ff ff ff       	jmp    401020 <_init+0x20>

0000000000401060 <strncmp@plt>:
  401060:	ff 25 b2 3f 00 00    	jmp    *0x3fb2(%rip)        # 405018 <strncmp@GLIBC_2.2.5>
  401066:	68 03 00 00 00       	push   $0x3
  40106b:	e9 b0 ff ff ff       	jmp    401020 <_init+0x20>

0000000000401070 <strcpy@plt>:
  401070:	ff 25 aa 3f 00 00    	jmp    *0x3faa(%rip)        # 405020 <strcpy@GLIBC_2.2.5>
  401076:	68 04 00 00 00       	push   $0x4
  40107b:	e9 a0 ff ff ff       	jmp    401020 <_init+0x20>

0000000000401080 <puts@plt>:
  401080:	ff 25 a2 3f 00 00    	jmp    *0x3fa2(%rip)        # 405028 <puts@GLIBC_2.2.5>
  401086:	68 05 00 00 00       	push   $0x5
  40108b:	e9 90 ff ff ff       	jmp    401020 <_init+0x20>

0000000000401090 <write@plt>:
  401090:	ff 25 9a 3f 00 00    	jmp    *0x3f9a(%rip)        # 405030 <write@GLIBC_2.2.5>
  401096:	68 06 00 00 00       	push   $0x6
  40109b:	e9 80 ff ff ff       	jmp    401020 <_init+0x20>

00000000004010a0 <strlen@plt>:
  4010a0:	ff 25 92 3f 00 00    	jmp    *0x3f92(%rip)        # 405038 <strlen@GLIBC_2.2.5>
  4010a6:	68 07 00 00 00       	push   $0x7
  4010ab:	e9 70 ff ff ff       	jmp    401020 <_init+0x20>

00000000004010b0 <mmap@plt>:
  4010b0:	ff 25 8a 3f 00 00    	jmp    *0x3f8a(%rip)        # 405040 <mmap@GLIBC_2.2.5>
  4010b6:	68 08 00 00 00       	push   $0x8
  4010bb:	e9 60 ff ff ff       	jmp    401020 <_init+0x20>

00000000004010c0 <printf@plt>:
  4010c0:	ff 25 82 3f 00 00    	jmp    *0x3f82(%rip)        # 405048 <printf@GLIBC_2.2.5>
  4010c6:	68 09 00 00 00       	push   $0x9
  4010cb:	e9 50 ff ff ff       	jmp    401020 <_init+0x20>

00000000004010d0 <memset@plt>:
  4010d0:	ff 25 7a 3f 00 00    	jmp    *0x3f7a(%rip)        # 405050 <memset@GLIBC_2.2.5>
  4010d6:	68 0a 00 00 00       	push   $0xa
  4010db:	e9 40 ff ff ff       	jmp    401020 <_init+0x20>

00000000004010e0 <alarm@plt>:
  4010e0:	ff 25 72 3f 00 00    	jmp    *0x3f72(%rip)        # 405058 <alarm@GLIBC_2.2.5>
  4010e6:	68 0b 00 00 00       	push   $0xb
  4010eb:	e9 30 ff ff ff       	jmp    401020 <_init+0x20>

00000000004010f0 <close@plt>:
  4010f0:	ff 25 6a 3f 00 00    	jmp    *0x3f6a(%rip)        # 405060 <close@GLIBC_2.2.5>
  4010f6:	68 0c 00 00 00       	push   $0xc
  4010fb:	e9 20 ff ff ff       	jmp    401020 <_init+0x20>

0000000000401100 <read@plt>:
  401100:	ff 25 62 3f 00 00    	jmp    *0x3f62(%rip)        # 405068 <read@GLIBC_2.2.5>
  401106:	68 0d 00 00 00       	push   $0xd
  40110b:	e9 10 ff ff ff       	jmp    401020 <_init+0x20>

0000000000401110 <signal@plt>:
  401110:	ff 25 5a 3f 00 00    	jmp    *0x3f5a(%rip)        # 405070 <signal@GLIBC_2.2.5>
  401116:	68 0e 00 00 00       	push   $0xe
  40111b:	e9 00 ff ff ff       	jmp    401020 <_init+0x20>

0000000000401120 <gethostbyname@plt>:
  401120:	ff 25 52 3f 00 00    	jmp    *0x3f52(%rip)        # 405078 <gethostbyname@GLIBC_2.2.5>
  401126:	68 0f 00 00 00       	push   $0xf
  40112b:	e9 f0 fe ff ff       	jmp    401020 <_init+0x20>

0000000000401130 <fprintf@plt>:
  401130:	ff 25 4a 3f 00 00    	jmp    *0x3f4a(%rip)        # 405080 <fprintf@GLIBC_2.2.5>
  401136:	68 10 00 00 00       	push   $0x10
  40113b:	e9 e0 fe ff ff       	jmp    401020 <_init+0x20>

0000000000401140 <strtol@plt>:
  401140:	ff 25 42 3f 00 00    	jmp    *0x3f42(%rip)        # 405088 <strtol@GLIBC_2.2.5>
  401146:	68 11 00 00 00       	push   $0x11
  40114b:	e9 d0 fe ff ff       	jmp    401020 <_init+0x20>

0000000000401150 <memcpy@plt>:
  401150:	ff 25 3a 3f 00 00    	jmp    *0x3f3a(%rip)        # 405090 <memcpy@GLIBC_2.14>
  401156:	68 12 00 00 00       	push   $0x12
  40115b:	e9 c0 fe ff ff       	jmp    401020 <_init+0x20>

0000000000401160 <time@plt>:
  401160:	ff 25 32 3f 00 00    	jmp    *0x3f32(%rip)        # 405098 <time@GLIBC_2.2.5>
  401166:	68 13 00 00 00       	push   $0x13
  40116b:	e9 b0 fe ff ff       	jmp    401020 <_init+0x20>

0000000000401170 <random@plt>:
  401170:	ff 25 2a 3f 00 00    	jmp    *0x3f2a(%rip)        # 4050a0 <random@GLIBC_2.2.5>
  401176:	68 14 00 00 00       	push   $0x14
  40117b:	e9 a0 fe ff ff       	jmp    401020 <_init+0x20>

0000000000401180 <__isoc99_sscanf@plt>:
  401180:	ff 25 22 3f 00 00    	jmp    *0x3f22(%rip)        # 4050a8 <__isoc99_sscanf@GLIBC_2.7>
  401186:	68 15 00 00 00       	push   $0x15
  40118b:	e9 90 fe ff ff       	jmp    401020 <_init+0x20>

0000000000401190 <munmap@plt>:
  401190:	ff 25 1a 3f 00 00    	jmp    *0x3f1a(%rip)        # 4050b0 <munmap@GLIBC_2.2.5>
  401196:	68 16 00 00 00       	push   $0x16
  40119b:	e9 80 fe ff ff       	jmp    401020 <_init+0x20>

00000000004011a0 <memmove@plt>:
  4011a0:	ff 25 12 3f 00 00    	jmp    *0x3f12(%rip)        # 4050b8 <memmove@GLIBC_2.2.5>
  4011a6:	68 17 00 00 00       	push   $0x17
  4011ab:	e9 70 fe ff ff       	jmp    401020 <_init+0x20>

00000000004011b0 <fopen@plt>:
  4011b0:	ff 25 0a 3f 00 00    	jmp    *0x3f0a(%rip)        # 4050c0 <fopen@GLIBC_2.2.5>
  4011b6:	68 18 00 00 00       	push   $0x18
  4011bb:	e9 60 fe ff ff       	jmp    401020 <_init+0x20>

00000000004011c0 <getopt@plt>:
  4011c0:	ff 25 02 3f 00 00    	jmp    *0x3f02(%rip)        # 4050c8 <getopt@GLIBC_2.2.5>
  4011c6:	68 19 00 00 00       	push   $0x19
  4011cb:	e9 50 fe ff ff       	jmp    401020 <_init+0x20>

00000000004011d0 <strtoul@plt>:
  4011d0:	ff 25 fa 3e 00 00    	jmp    *0x3efa(%rip)        # 4050d0 <strtoul@GLIBC_2.2.5>
  4011d6:	68 1a 00 00 00       	push   $0x1a
  4011db:	e9 40 fe ff ff       	jmp    401020 <_init+0x20>

00000000004011e0 <gethostname@plt>:
  4011e0:	ff 25 f2 3e 00 00    	jmp    *0x3ef2(%rip)        # 4050d8 <gethostname@GLIBC_2.2.5>
  4011e6:	68 1b 00 00 00       	push   $0x1b
  4011eb:	e9 30 fe ff ff       	jmp    401020 <_init+0x20>

00000000004011f0 <sprintf@plt>:
  4011f0:	ff 25 ea 3e 00 00    	jmp    *0x3eea(%rip)        # 4050e0 <sprintf@GLIBC_2.2.5>
  4011f6:	68 1c 00 00 00       	push   $0x1c
  4011fb:	e9 20 fe ff ff       	jmp    401020 <_init+0x20>

0000000000401200 <exit@plt>:
  401200:	ff 25 e2 3e 00 00    	jmp    *0x3ee2(%rip)        # 4050e8 <exit@GLIBC_2.2.5>
  401206:	68 1d 00 00 00       	push   $0x1d
  40120b:	e9 10 fe ff ff       	jmp    401020 <_init+0x20>

0000000000401210 <connect@plt>:
  401210:	ff 25 da 3e 00 00    	jmp    *0x3eda(%rip)        # 4050f0 <connect@GLIBC_2.2.5>
  401216:	68 1e 00 00 00       	push   $0x1e
  40121b:	e9 00 fe ff ff       	jmp    401020 <_init+0x20>

0000000000401220 <getc@plt>:
  401220:	ff 25 d2 3e 00 00    	jmp    *0x3ed2(%rip)        # 4050f8 <getc@GLIBC_2.2.5>
  401226:	68 1f 00 00 00       	push   $0x1f
  40122b:	e9 f0 fd ff ff       	jmp    401020 <_init+0x20>

0000000000401230 <socket@plt>:
  401230:	ff 25 ca 3e 00 00    	jmp    *0x3eca(%rip)        # 405100 <socket@GLIBC_2.2.5>
  401236:	68 20 00 00 00       	push   $0x20
  40123b:	e9 e0 fd ff ff       	jmp    401020 <_init+0x20>

Disassembly of section .text:

0000000000401240 <_start>:
  401240:	31 ed                	xor    %ebp,%ebp
  401242:	49 89 d1             	mov    %rdx,%r9
  401245:	5e                   	pop    %rsi
  401246:	48 89 e2             	mov    %rsp,%rdx
  401249:	48 83 e4 f0          	and    $0xfffffffffffffff0,%rsp
  40124d:	50                   	push   %rax
  40124e:	54                   	push   %rsp
  40124f:	45 31 c0             	xor    %r8d,%r8d
  401252:	31 c9                	xor    %ecx,%ecx
  401254:	48 c7 c7 df 14 40 00 	mov    $0x4014df,%rdi
  40125b:	ff 15 77 3d 00 00    	call   *0x3d77(%rip)        # 404fd8 <__libc_start_main@GLIBC_2.34>
  401261:	f4                   	hlt    
  401262:	66 2e 0f 1f 84 00 00 	cs nopw 0x0(%rax,%rax,1)
  401269:	00 00 00 
  40126c:	0f 1f 40 00          	nopl   0x0(%rax)

0000000000401270 <_dl_relocate_static_pie>:
  401270:	c3                   	ret    
  401271:	66 2e 0f 1f 84 00 00 	cs nopw 0x0(%rax,%rax,1)
  401278:	00 00 00 
  40127b:	0f 1f 44 00 00       	nopl   0x0(%rax,%rax,1)

0000000000401280 <deregister_tm_clones>:
  401280:	b8 98 54 40 00       	mov    $0x405498,%eax
  401285:	48 3d 98 54 40 00    	cmp    $0x405498,%rax
  40128b:	74 13                	je     4012a0 <deregister_tm_clones+0x20>
  40128d:	b8 00 00 00 00       	mov    $0x0,%eax
  401292:	48 85 c0             	test   %rax,%rax
  401295:	74 09                	je     4012a0 <deregister_tm_clones+0x20>
  401297:	bf 98 54 40 00       	mov    $0x405498,%edi
  40129c:	ff e0                	jmp    *%rax
  40129e:	66 90                	xchg   %ax,%ax
  4012a0:	c3                   	ret    
  4012a1:	66 66 2e 0f 1f 84 00 	data16 cs nopw 0x0(%rax,%rax,1)
  4012a8:	00 00 00 00 
  4012ac:	0f 1f 40 00          	nopl   0x0(%rax)

00000000004012b0 <register_tm_clones>:
  4012b0:	be 98 54 40 00       	mov    $0x405498,%esi
  4012b5:	48 81 ee 98 54 40 00 	sub    $0x405498,%rsi
  4012bc:	48 89 f0             	mov    %rsi,%rax
  4012bf:	48 c1 ee 3f          	shr    $0x3f,%rsi
  4012c3:	48 c1 f8 03          	sar    $0x3,%rax
  4012c7:	48 01 c6             	add    %rax,%rsi
  4012ca:	48 d1 fe             	sar    %rsi
  4012cd:	74 11                	je     4012e0 <register_tm_clones+0x30>
  4012cf:	b8 00 00 00 00       	mov    $0x0,%eax
  4012d4:	48 85 c0             	test   %rax,%rax
  4012d7:	74 07                	je     4012e0 <register_tm_clones+0x30>
  4012d9:	bf 98 54 40 00       	mov    $0x405498,%edi
  4012de:	ff e0                	jmp    *%rax
  4012e0:	c3                   	ret    
  4012e1:	66 66 2e 0f 1f 84 00 	data16 cs nopw 0x0(%rax,%rax,1)
  4012e8:	00 00 00 00 
  4012ec:	0f 1f 40 00          	nopl   0x0(%rax)

00000000004012f0 <__do_global_dtors_aux>:
  4012f0:	80 3d f1 41 00 00 00 	cmpb   $0x0,0x41f1(%rip)        # 4054e8 <completed.0>
  4012f7:	75 17                	jne    401310 <__do_global_dtors_aux+0x20>
  4012f9:	55                   	push   %rbp
  4012fa:	48 89 e5             	mov    %rsp,%rbp
  4012fd:	e8 7e ff ff ff       	call   401280 <deregister_tm_clones>
  401302:	c6 05 df 41 00 00 01 	movb   $0x1,0x41df(%rip)        # 4054e8 <completed.0>
  401309:	5d                   	pop    %rbp
  40130a:	c3                   	ret    
  40130b:	0f 1f 44 00 00       	nopl   0x0(%rax,%rax,1)
  401310:	c3                   	ret    
  401311:	66 66 2e 0f 1f 84 00 	data16 cs nopw 0x0(%rax,%rax,1)
  401318:	00 00 00 00 
  40131c:	0f 1f 40 00          	nopl   0x0(%rax)

0000000000401320 <frame_dummy>:
  401320:	eb 8e                	jmp    4012b0 <register_tm_clones>

0000000000401322 <usage>:
  401322:	48 83 ec 08          	sub    $0x8,%rsp
  401326:	48 89 fe             	mov    %rdi,%rsi
  401329:	83 3d 00 42 00 00 00 	cmpl   $0x0,0x4200(%rip)        # 405530 <is_checker>
  401330:	74 4b                	je     40137d <usage+0x5b>
  401332:	48 8d 3d cf 1c 00 00 	lea    0x1ccf(%rip),%rdi        # 403008 <_IO_stdin_used+0x8>
  401339:	b8 00 00 00 00       	mov    $0x0,%eax
  40133e:	e8 7d fd ff ff       	call   4010c0 <printf@plt>
  401343:	48 8d 3d f6 1c 00 00 	lea    0x1cf6(%rip),%rdi        # 403040 <_IO_stdin_used+0x40>
  40134a:	e8 31 fd ff ff       	call   401080 <puts@plt>
  40134f:	48 8d 3d 22 1e 00 00 	lea    0x1e22(%rip),%rdi        # 403178 <_IO_stdin_used+0x178>
  401356:	e8 25 fd ff ff       	call   401080 <puts@plt>
  40135b:	48 8d 3d 06 1d 00 00 	lea    0x1d06(%rip),%rdi        # 403068 <_IO_stdin_used+0x68>
  401362:	e8 19 fd ff ff       	call   401080 <puts@plt>
  401367:	48 8d 3d 24 1e 00 00 	lea    0x1e24(%rip),%rdi        # 403192 <_IO_stdin_used+0x192>
  40136e:	e8 0d fd ff ff       	call   401080 <puts@plt>
  401373:	bf 00 00 00 00       	mov    $0x0,%edi
  401378:	e8 83 fe ff ff       	call   401200 <exit@plt>
  40137d:	48 8d 3d 2a 1e 00 00 	lea    0x1e2a(%rip),%rdi        # 4031ae <_IO_stdin_used+0x1ae>
  401384:	b8 00 00 00 00       	mov    $0x0,%eax
  401389:	e8 32 fd ff ff       	call   4010c0 <printf@plt>
  40138e:	48 8d 3d fb 1c 00 00 	lea    0x1cfb(%rip),%rdi        # 403090 <_IO_stdin_used+0x90>
  401395:	e8 e6 fc ff ff       	call   401080 <puts@plt>
  40139a:	48 8d 3d 17 1d 00 00 	lea    0x1d17(%rip),%rdi        # 4030b8 <_IO_stdin_used+0xb8>
  4013a1:	e8 da fc ff ff       	call   401080 <puts@plt>
  4013a6:	48 8d 3d 1f 1e 00 00 	lea    0x1e1f(%rip),%rdi        # 4031cc <_IO_stdin_used+0x1cc>
  4013ad:	e8 ce fc ff ff       	call   401080 <puts@plt>
  4013b2:	eb bf                	jmp    401373 <usage+0x51>

00000000004013b4 <initialize_target>:
  4013b4:	55                   	push   %rbp
  4013b5:	53                   	push   %rbx
  4013b6:	48 81 ec 08 21 00 00 	sub    $0x2108,%rsp
  4013bd:	89 f5                	mov    %esi,%ebp
  4013bf:	89 3d 5b 41 00 00    	mov    %edi,0x415b(%rip)        # 405520 <check_level>
  4013c5:	8b 3d 65 3d 00 00    	mov    0x3d65(%rip),%edi        # 405130 <target_id>
  4013cb:	e8 c7 1b 00 00       	call   402f97 <gencookie>
  4013d0:	89 c7                	mov    %eax,%edi
  4013d2:	89 05 54 41 00 00    	mov    %eax,0x4154(%rip)        # 40552c <cookie>
  4013d8:	e8 ba 1b 00 00       	call   402f97 <gencookie>
  4013dd:	89 05 45 41 00 00    	mov    %eax,0x4145(%rip)        # 405528 <authkey>
  4013e3:	8b 05 47 3d 00 00    	mov    0x3d47(%rip),%eax        # 405130 <target_id>
  4013e9:	8d 78 01             	lea    0x1(%rax),%edi
  4013ec:	e8 5f fc ff ff       	call   401050 <srandom@plt>
  4013f1:	e8 7a fd ff ff       	call   401170 <random@plt>
  4013f6:	48 89 c7             	mov    %rax,%rdi
  4013f9:	e8 b6 02 00 00       	call   4016b4 <scramble>
  4013fe:	89 c3                	mov    %eax,%ebx
  401400:	85 ed                	test   %ebp,%ebp
  401402:	75 3d                	jne    401441 <initialize_target+0x8d>
  401404:	b8 00 00 00 00       	mov    $0x0,%eax
  401409:	01 d8                	add    %ebx,%eax
  40140b:	0f b7 c0             	movzwl %ax,%eax
  40140e:	8d 04 c5 00 01 00 00 	lea    0x100(,%rax,8),%eax
  401415:	89 c0                	mov    %eax,%eax
  401417:	48 89 05 72 40 00 00 	mov    %rax,0x4072(%rip)        # 405490 <buf_offset>
  40141e:	c6 05 c4 40 00 00 63 	movb   $0x63,0x40c4(%rip)        # 4054e9 <target_prefix>
  401425:	83 3d 5c 40 00 00 00 	cmpl   $0x0,0x405c(%rip)        # 405488 <notify>
  40142c:	74 09                	je     401437 <initialize_target+0x83>
  40142e:	83 3d fb 40 00 00 00 	cmpl   $0x0,0x40fb(%rip)        # 405530 <is_checker>
  401435:	74 23                	je     40145a <initialize_target+0xa6>
  401437:	48 81 c4 08 21 00 00 	add    $0x2108,%rsp
  40143e:	5b                   	pop    %rbx
  40143f:	5d                   	pop    %rbp
  401440:	c3                   	ret    
  401441:	bf 00 00 00 00       	mov    $0x0,%edi
  401446:	e8 15 fd ff ff       	call   401160 <time@plt>
  40144b:	48 89 c7             	mov    %rax,%rdi
  40144e:	e8 fd fb ff ff       	call   401050 <srandom@plt>
  401453:	e8 18 fd ff ff       	call   401170 <random@plt>
  401458:	eb af                	jmp    401409 <initialize_target+0x55>
  40145a:	48 89 e7             	mov    %rsp,%rdi
  40145d:	be 00 01 00 00       	mov    $0x100,%esi
  401462:	e8 79 fd ff ff       	call   4011e0 <gethostname@plt>
  401467:	89 c3                	mov    %eax,%ebx
  401469:	85 c0                	test   %eax,%eax
  40146b:	75 24                	jne    401491 <initialize_target+0xdd>
  40146d:	48 63 c3             	movslq %ebx,%rax
  401470:	48 8d 15 e9 3c 00 00 	lea    0x3ce9(%rip),%rdx        # 405160 <host_table>
  401477:	48 8b 3c c2          	mov    (%rdx,%rax,8),%rdi
  40147b:	48 85 ff             	test   %rdi,%rdi
  40147e:	74 27                	je     4014a7 <initialize_target+0xf3>
  401480:	48 89 e6             	mov    %rsp,%rsi
  401483:	e8 a8 fb ff ff       	call   401030 <strcasecmp@plt>
  401488:	85 c0                	test   %eax,%eax
  40148a:	74 1b                	je     4014a7 <initialize_target+0xf3>
  40148c:	83 c3 01             	add    $0x1,%ebx
  40148f:	eb dc                	jmp    40146d <initialize_target+0xb9>
  401491:	48 8d 3d 50 1c 00 00 	lea    0x1c50(%rip),%rdi        # 4030e8 <_IO_stdin_used+0xe8>
  401498:	e8 e3 fb ff ff       	call   401080 <puts@plt>
  40149d:	bf 08 00 00 00       	mov    $0x8,%edi
  4014a2:	e8 59 fd ff ff       	call   401200 <exit@plt>
  4014a7:	48 8d bc 24 00 01 00 	lea    0x100(%rsp),%rdi
  4014ae:	00 
  4014af:	e8 4c 18 00 00       	call   402d00 <init_driver>
  4014b4:	85 c0                	test   %eax,%eax
  4014b6:	0f 89 7b ff ff ff    	jns    401437 <initialize_target+0x83>
  4014bc:	48 8d b4 24 00 01 00 	lea    0x100(%rsp),%rsi
  4014c3:	00 
  4014c4:	48 8d 3d 55 1c 00 00 	lea    0x1c55(%rip),%rdi        # 403120 <_IO_stdin_used+0x120>
  4014cb:	b8 00 00 00 00       	mov    $0x0,%eax
  4014d0:	e8 eb fb ff ff       	call   4010c0 <printf@plt>
  4014d5:	bf 08 00 00 00       	mov    $0x8,%edi
  4014da:	e8 21 fd ff ff       	call   401200 <exit@plt>

00000000004014df <main>:
  4014df:	41 56                	push   %r14
  4014e1:	41 55                	push   %r13
  4014e3:	41 54                	push   %r12
  4014e5:	55                   	push   %rbp
  4014e6:	53                   	push   %rbx
  4014e7:	89 fd                	mov    %edi,%ebp
  4014e9:	48 89 f3             	mov    %rsi,%rbx
  4014ec:	48 c7 c6 12 21 40 00 	mov    $0x402112,%rsi
  4014f3:	bf 0b 00 00 00       	mov    $0xb,%edi
  4014f8:	e8 13 fc ff ff       	call   401110 <signal@plt>
  4014fd:	48 c7 c6 be 20 40 00 	mov    $0x4020be,%rsi
  401504:	bf 07 00 00 00       	mov    $0x7,%edi
  401509:	e8 02 fc ff ff       	call   401110 <signal@plt>
  40150e:	48 c7 c6 66 21 40 00 	mov    $0x402166,%rsi
  401515:	bf 04 00 00 00       	mov    $0x4,%edi
  40151a:	e8 f1 fb ff ff       	call   401110 <signal@plt>
  40151f:	83 3d 0a 40 00 00 00 	cmpl   $0x0,0x400a(%rip)        # 405530 <is_checker>
  401526:	75 26                	jne    40154e <main+0x6f>
  401528:	4c 8d 25 be 1c 00 00 	lea    0x1cbe(%rip),%r12        # 4031ed <_IO_stdin_used+0x1ed>
  40152f:	48 8b 05 6a 3f 00 00 	mov    0x3f6a(%rip),%rax        # 4054a0 <stdin@GLIBC_2.2.5>
  401536:	48 89 05 db 3f 00 00 	mov    %rax,0x3fdb(%rip)        # 405518 <infile>
  40153d:	41 bd 00 00 00 00    	mov    $0x0,%r13d
  401543:	41 be 00 00 00 00    	mov    $0x0,%r14d
  401549:	e9 88 00 00 00       	jmp    4015d6 <main+0xf7>
  40154e:	48 c7 c6 ba 21 40 00 	mov    $0x4021ba,%rsi
  401555:	bf 0e 00 00 00       	mov    $0xe,%edi
  40155a:	e8 b1 fb ff ff       	call   401110 <signal@plt>
  40155f:	bf 05 00 00 00       	mov    $0x5,%edi
  401564:	e8 77 fb ff ff       	call   4010e0 <alarm@plt>
  401569:	4c 8d 25 75 1c 00 00 	lea    0x1c75(%rip),%r12        # 4031e5 <_IO_stdin_used+0x1e5>
  401570:	eb bd                	jmp    40152f <main+0x50>
  401572:	48 8b 3b             	mov    (%rbx),%rdi
  401575:	e8 a8 fd ff ff       	call   401322 <usage>
  40157a:	48 8d 35 f4 1e 00 00 	lea    0x1ef4(%rip),%rsi        # 403475 <_IO_stdin_used+0x475>
  401581:	48 8b 3d 38 3f 00 00 	mov    0x3f38(%rip),%rdi        # 4054c0 <optarg@GLIBC_2.2.5>
  401588:	e8 23 fc ff ff       	call   4011b0 <fopen@plt>
  40158d:	48 89 05 84 3f 00 00 	mov    %rax,0x3f84(%rip)        # 405518 <infile>
  401594:	48 85 c0             	test   %rax,%rax
  401597:	75 3d                	jne    4015d6 <main+0xf7>
  401599:	48 8b 15 20 3f 00 00 	mov    0x3f20(%rip),%rdx        # 4054c0 <optarg@GLIBC_2.2.5>
  4015a0:	48 8d 35 4b 1c 00 00 	lea    0x1c4b(%rip),%rsi        # 4031f2 <_IO_stdin_used+0x1f2>
  4015a7:	48 8b 3d 32 3f 00 00 	mov    0x3f32(%rip),%rdi        # 4054e0 <stderr@GLIBC_2.2.5>
  4015ae:	e8 7d fb ff ff       	call   401130 <fprintf@plt>
  4015b3:	b8 01 00 00 00       	mov    $0x1,%eax
  4015b8:	e9 ce 00 00 00       	jmp    40168b <main+0x1ac>
  4015bd:	ba 10 00 00 00       	mov    $0x10,%edx
  4015c2:	be 00 00 00 00       	mov    $0x0,%esi
  4015c7:	48 8b 3d f2 3e 00 00 	mov    0x3ef2(%rip),%rdi        # 4054c0 <optarg@GLIBC_2.2.5>
  4015ce:	e8 fd fb ff ff       	call   4011d0 <strtoul@plt>
  4015d3:	41 89 c6             	mov    %eax,%r14d
  4015d6:	4c 89 e2             	mov    %r12,%rdx
  4015d9:	48 89 de             	mov    %rbx,%rsi
  4015dc:	89 ef                	mov    %ebp,%edi
  4015de:	e8 dd fb ff ff       	call   4011c0 <getopt@plt>
  4015e3:	3c ff                	cmp    $0xff,%al
  4015e5:	74 5d                	je     401644 <main+0x165>
  4015e7:	0f be f0             	movsbl %al,%esi
  4015ea:	83 e8 61             	sub    $0x61,%eax
  4015ed:	3c 10                	cmp    $0x10,%al
  4015ef:	77 3a                	ja     40162b <main+0x14c>
  4015f1:	0f b6 c0             	movzbl %al,%eax
  4015f4:	48 8d 15 35 1c 00 00 	lea    0x1c35(%rip),%rdx        # 403230 <_IO_stdin_used+0x230>
  4015fb:	48 63 04 82          	movslq (%rdx,%rax,4),%rax
  4015ff:	48 01 d0             	add    %rdx,%rax
  401602:	ff e0                	jmp    *%rax
  401604:	ba 0a 00 00 00       	mov    $0xa,%edx
  401609:	be 00 00 00 00       	mov    $0x0,%esi
  40160e:	48 8b 3d ab 3e 00 00 	mov    0x3eab(%rip),%rdi        # 4054c0 <optarg@GLIBC_2.2.5>
  401615:	e8 26 fb ff ff       	call   401140 <strtol@plt>
  40161a:	41 89 c5             	mov    %eax,%r13d
  40161d:	eb b7                	jmp    4015d6 <main+0xf7>
  40161f:	c7 05 5f 3e 00 00 00 	movl   $0x0,0x3e5f(%rip)        # 405488 <notify>
  401626:	00 00 00 
  401629:	eb ab                	jmp    4015d6 <main+0xf7>
  40162b:	48 8d 3d dd 1b 00 00 	lea    0x1bdd(%rip),%rdi        # 40320f <_IO_stdin_used+0x20f>
  401632:	b8 00 00 00 00       	mov    $0x0,%eax
  401637:	e8 84 fa ff ff       	call   4010c0 <printf@plt>
  40163c:	48 8b 3b             	mov    (%rbx),%rdi
  40163f:	e8 de fc ff ff       	call   401322 <usage>
  401644:	be 00 00 00 00       	mov    $0x0,%esi
  401649:	44 89 ef             	mov    %r13d,%edi
  40164c:	e8 63 fd ff ff       	call   4013b4 <initialize_target>
  401651:	83 3d d8 3e 00 00 00 	cmpl   $0x0,0x3ed8(%rip)        # 405530 <is_checker>
  401658:	74 09                	je     401663 <main+0x184>
  40165a:	44 39 35 c7 3e 00 00 	cmp    %r14d,0x3ec7(%rip)        # 405528 <authkey>
  401661:	75 31                	jne    401694 <main+0x1b5>
  401663:	8b 35 c3 3e 00 00    	mov    0x3ec3(%rip),%esi        # 40552c <cookie>
  401669:	48 8d 3d b2 1b 00 00 	lea    0x1bb2(%rip),%rdi        # 403222 <_IO_stdin_used+0x222>
  401670:	b8 00 00 00 00       	mov    $0x0,%eax
  401675:	e8 46 fa ff ff       	call   4010c0 <printf@plt>
  40167a:	48 8b 3d 0f 3e 00 00 	mov    0x3e0f(%rip),%rdi        # 405490 <buf_offset>
  401681:	e8 0f 0c 00 00       	call   402295 <stable_launch>
  401686:	b8 00 00 00 00       	mov    $0x0,%eax
  40168b:	5b                   	pop    %rbx
  40168c:	5d                   	pop    %rbp
  40168d:	41 5c                	pop    %r12
  40168f:	41 5d                	pop    %r13
  401691:	41 5e                	pop    %r14
  401693:	c3                   	ret    
  401694:	44 89 f6             	mov    %r14d,%esi
  401697:	48 8d 3d aa 1a 00 00 	lea    0x1aaa(%rip),%rdi        # 403148 <_IO_stdin_used+0x148>
  40169e:	b8 00 00 00 00       	mov    $0x0,%eax
  4016a3:	e8 18 fa ff ff       	call   4010c0 <printf@plt>
  4016a8:	b8 00 00 00 00       	mov    $0x0,%eax
  4016ad:	e8 e0 06 00 00       	call   401d92 <check_fail>
  4016b2:	eb af                	jmp    401663 <main+0x184>

00000000004016b4 <scramble>:
  4016b4:	b8 00 00 00 00       	mov    $0x0,%eax
  4016b9:	eb 11                	jmp    4016cc <scramble+0x18>
  4016bb:	69 d0 30 8f 00 00    	imul   $0x8f30,%eax,%edx
  4016c1:	01 fa                	add    %edi,%edx
  4016c3:	89 c1                	mov    %eax,%ecx
  4016c5:	89 54 8c d0          	mov    %edx,-0x30(%rsp,%rcx,4)
  4016c9:	83 c0 01             	add    $0x1,%eax
  4016cc:	83 f8 09             	cmp    $0x9,%eax
  4016cf:	76 ea                	jbe    4016bb <scramble+0x7>
  4016d1:	8b 44 24 d8          	mov    -0x28(%rsp),%eax
  4016d5:	69 c0 68 66 00 00    	imul   $0x6668,%eax,%eax
  4016db:	89 44 24 d8          	mov    %eax,-0x28(%rsp)
  4016df:	8b 44 24 e8          	mov    -0x18(%rsp),%eax
  4016e3:	69 c0 26 fe 00 00    	imul   $0xfe26,%eax,%eax
  4016e9:	89 44 24 e8          	mov    %eax,-0x18(%rsp)
  4016ed:	8b 44 24 d8          	mov    -0x28(%rsp),%eax
  4016f1:	69 c0 49 58 00 00    	imul   $0x5849,%eax,%eax
  4016f7:	89 44 24 d8          	mov    %eax,-0x28(%rsp)
  4016fb:	8b 44 24 f4          	mov    -0xc(%rsp),%eax
  4016ff:	69 c0 2b 0c 00 00    	imul   $0xc2b,%eax,%eax
  401705:	89 44 24 f4          	mov    %eax,-0xc(%rsp)
  401709:	8b 44 24 ec          	mov    -0x14(%rsp),%eax
  40170d:	69 c0 52 f4 00 00    	imul   $0xf452,%eax,%eax
  401713:	89 44 24 ec          	mov    %eax,-0x14(%rsp)
  401717:	8b 44 24 e4          	mov    -0x1c(%rsp),%eax
  40171b:	69 c0 fc 68 00 00    	imul   $0x68fc,%eax,%eax
  401721:	89 44 24 e4          	mov    %eax,-0x1c(%rsp)
  401725:	8b 44 24 d8          	mov    -0x28(%rsp),%eax
  401729:	69 c0 16 27 00 00    	imul   $0x2716,%eax,%eax
  40172f:	89 44 24 d8          	mov    %eax,-0x28(%rsp)
  401733:	8b 44 24 dc          	mov    -0x24(%rsp),%eax
  401737:	69 c0 e1 8d 00 00    	imul   $0x8de1,%eax,%eax
  40173d:	89 44 24 dc          	mov    %eax,-0x24(%rsp)
  401741:	8b 44 24 d4          	mov    -0x2c(%rsp),%eax
  401745:	69 c0 1c 3f 00 00    	imul   $0x3f1c,%eax,%eax
  40174b:	89 44 24 d4          	mov    %eax,-0x2c(%rsp)
  40174f:	8b 44 24 e8          	mov    -0x18(%rsp),%eax
  401753:	69 c0 67 4f 00 00    	imul   $0x4f67,%eax,%eax
  401759:	89 44 24 e8          	mov    %eax,-0x18(%rsp)
  40175d:	8b 44 24 dc          	mov    -0x24(%rsp),%eax
  401761:	69 c0 17 aa 00 00    	imul   $0xaa17,%eax,%eax
  401767:	89 44 24 dc          	mov    %eax,-0x24(%rsp)
  40176b:	8b 44 24 f4          	mov    -0xc(%rsp),%eax
  40176f:	69 c0 16 2e 00 00    	imul   $0x2e16,%eax,%eax
  401775:	89 44 24 f4          	mov    %eax,-0xc(%rsp)
  401779:	8b 44 24 f0          	mov    -0x10(%rsp),%eax
  40177d:	69 c0 da 97 00 00    	imul   $0x97da,%eax,%eax
  401783:	89 44 24 f0          	mov    %eax,-0x10(%rsp)
  401787:	8b 44 24 e4          	mov    -0x1c(%rsp),%eax
  40178b:	69 c0 12 b4 00 00    	imul   $0xb412,%eax,%eax
  401791:	89 44 24 e4          	mov    %eax,-0x1c(%rsp)
  401795:	8b 44 24 f0          	mov    -0x10(%rsp),%eax
  401799:	69 c0 64 5d 00 00    	imul   $0x5d64,%eax,%eax
  40179f:	89 44 24 f0          	mov    %eax,-0x10(%rsp)
  4017a3:	8b 44 24 f0          	mov    -0x10(%rsp),%eax
  4017a7:	69 c0 e1 71 00 00    	imul   $0x71e1,%eax,%eax
  4017ad:	89 44 24 f0          	mov    %eax,-0x10(%rsp)
  4017b1:	8b 44 24 dc          	mov    -0x24(%rsp),%eax
  4017b5:	69 c0 b1 78 00 00    	imul   $0x78b1,%eax,%eax
  4017bb:	89 44 24 dc          	mov    %eax,-0x24(%rsp)
  4017bf:	8b 44 24 d0          	mov    -0x30(%rsp),%eax
  4017c3:	69 c0 bf dd 00 00    	imul   $0xddbf,%eax,%eax
  4017c9:	89 44 24 d0          	mov    %eax,-0x30(%rsp)
  4017cd:	8b 44 24 d0          	mov    -0x30(%rsp),%eax
  4017d1:	69 c0 47 e3 00 00    	imul   $0xe347,%eax,%eax
  4017d7:	89 44 24 d0          	mov    %eax,-0x30(%rsp)
  4017db:	8b 44 24 f4          	mov    -0xc(%rsp),%eax
  4017df:	69 c0 c3 b5 00 00    	imul   $0xb5c3,%eax,%eax
  4017e5:	89 44 24 f4          	mov    %eax,-0xc(%rsp)
  4017e9:	8b 44 24 dc          	mov    -0x24(%rsp),%eax
  4017ed:	69 c0 fa c3 00 00    	imul   $0xc3fa,%eax,%eax
  4017f3:	89 44 24 dc          	mov    %eax,-0x24(%rsp)
  4017f7:	8b 44 24 d0          	mov    -0x30(%rsp),%eax
  4017fb:	69 c0 44 90 00 00    	imul   $0x9044,%eax,%eax
  401801:	89 44 24 d0          	mov    %eax,-0x30(%rsp)
  401805:	8b 44 24 f4          	mov    -0xc(%rsp),%eax
  401809:	69 c0 8b 00 00 00    	imul   $0x8b,%eax,%eax
  40180f:	89 44 24 f4          	mov    %eax,-0xc(%rsp)
  401813:	8b 44 24 ec          	mov    -0x14(%rsp),%eax
  401817:	69 c0 77 c4 00 00    	imul   $0xc477,%eax,%eax
  40181d:	89 44 24 ec          	mov    %eax,-0x14(%rsp)
  401821:	8b 44 24 d0          	mov    -0x30(%rsp),%eax
  401825:	69 c0 cc d2 00 00    	imul   $0xd2cc,%eax,%eax
  40182b:	89 44 24 d0          	mov    %eax,-0x30(%rsp)
  40182f:	8b 44 24 e4          	mov    -0x1c(%rsp),%eax
  401833:	69 c0 f9 ef 00 00    	imul   $0xeff9,%eax,%eax
  401839:	89 44 24 e4          	mov    %eax,-0x1c(%rsp)
  40183d:	8b 44 24 ec          	mov    -0x14(%rsp),%eax
  401841:	69 c0 24 a1 00 00    	imul   $0xa124,%eax,%eax
  401847:	89 44 24 ec          	mov    %eax,-0x14(%rsp)
  40184b:	8b 44 24 e0          	mov    -0x20(%rsp),%eax
  40184f:	69 c0 70 4e 00 00    	imul   $0x4e70,%eax,%eax
  401855:	89 44 24 e0          	mov    %eax,-0x20(%rsp)
  401859:	8b 44 24 dc          	mov    -0x24(%rsp),%eax
  40185d:	69 c0 03 66 00 00    	imul   $0x6603,%eax,%eax
  401863:	89 44 24 dc          	mov    %eax,-0x24(%rsp)
  401867:	8b 44 24 d4          	mov    -0x2c(%rsp),%eax
  40186b:	69 c0 af 1b 00 00    	imul   $0x1baf,%eax,%eax
  401871:	89 44 24 d4          	mov    %eax,-0x2c(%rsp)
  401875:	8b 44 24 e8          	mov    -0x18(%rsp),%eax
  401879:	69 c0 1d d1 00 00    	imul   $0xd11d,%eax,%eax
  40187f:	89 44 24 e8          	mov    %eax,-0x18(%rsp)
  401883:	8b 44 24 f0          	mov    -0x10(%rsp),%eax
  401887:	69 c0 34 87 00 00    	imul   $0x8734,%eax,%eax
  40188d:	89 44 24 f0          	mov    %eax,-0x10(%rsp)
  401891:	8b 44 24 f4          	mov    -0xc(%rsp),%eax
  401895:	69 c0 97 fd 00 00    	imul   $0xfd97,%eax,%eax
  40189b:	89 44 24 f4          	mov    %eax,-0xc(%rsp)
  40189f:	8b 44 24 f0          	mov    -0x10(%rsp),%eax
  4018a3:	69 c0 c9 1a 00 00    	imul   $0x1ac9,%eax,%eax
  4018a9:	89 44 24 f0          	mov    %eax,-0x10(%rsp)
  4018ad:	8b 44 24 d8          	mov    -0x28(%rsp),%eax
  4018b1:	69 c0 dd 4e 00 00    	imul   $0x4edd,%eax,%eax
  4018b7:	89 44 24 d8          	mov    %eax,-0x28(%rsp)
  4018bb:	8b 44 24 d4          	mov    -0x2c(%rsp),%eax
  4018bf:	69 c0 77 b8 00 00    	imul   $0xb877,%eax,%eax
  4018c5:	89 44 24 d4          	mov    %eax,-0x2c(%rsp)
  4018c9:	8b 44 24 dc          	mov    -0x24(%rsp),%eax
  4018cd:	69 c0 4c ef 00 00    	imul   $0xef4c,%eax,%eax
  4018d3:	89 44 24 dc          	mov    %eax,-0x24(%rsp)
  4018d7:	8b 44 24 dc          	mov    -0x24(%rsp),%eax
  4018db:	69 c0 e8 fd 00 00    	imul   $0xfde8,%eax,%eax
  4018e1:	89 44 24 dc          	mov    %eax,-0x24(%rsp)
  4018e5:	8b 44 24 f4          	mov    -0xc(%rsp),%eax
  4018e9:	69 c0 e0 66 00 00    	imul   $0x66e0,%eax,%eax
  4018ef:	89 44 24 f4          	mov    %eax,-0xc(%rsp)
  4018f3:	8b 44 24 e0          	mov    -0x20(%rsp),%eax
  4018f7:	69 c0 7f 2f 00 00    	imul   $0x2f7f,%eax,%eax
  4018fd:	89 44 24 e0          	mov    %eax,-0x20(%rsp)
  401901:	8b 44 24 f0          	mov    -0x10(%rsp),%eax
  401905:	69 c0 3e d6 00 00    	imul   $0xd63e,%eax,%eax
  40190b:	89 44 24 f0          	mov    %eax,-0x10(%rsp)
  40190f:	8b 44 24 e0          	mov    -0x20(%rsp),%eax
  401913:	69 c0 90 b6 00 00    	imul   $0xb690,%eax,%eax
  401919:	89 44 24 e0          	mov    %eax,-0x20(%rsp)
  40191d:	8b 44 24 f0          	mov    -0x10(%rsp),%eax
  401921:	69 c0 88 3d 00 00    	imul   $0x3d88,%eax,%eax
  401927:	89 44 24 f0          	mov    %eax,-0x10(%rsp)
  40192b:	8b 44 24 dc          	mov    -0x24(%rsp),%eax
  40192f:	69 c0 60 b0 00 00    	imul   $0xb060,%eax,%eax
  401935:	89 44 24 dc          	mov    %eax,-0x24(%rsp)
  401939:	8b 44 24 d4          	mov    -0x2c(%rsp),%eax
  40193d:	69 c0 83 07 00 00    	imul   $0x783,%eax,%eax
  401943:	89 44 24 d4          	mov    %eax,-0x2c(%rsp)
  401947:	8b 44 24 ec          	mov    -0x14(%rsp),%eax
  40194b:	69 c0 f3 66 00 00    	imul   $0x66f3,%eax,%eax
  401951:	89 44 24 ec          	mov    %eax,-0x14(%rsp)
  401955:	8b 44 24 ec          	mov    -0x14(%rsp),%eax
  401959:	69 c0 9f 59 00 00    	imul   $0x599f,%eax,%eax
  40195f:	89 44 24 ec          	mov    %eax,-0x14(%rsp)
  401963:	8b 44 24 f0          	mov    -0x10(%rsp),%eax
  401967:	69 c0 6f 22 00 00    	imul   $0x226f,%eax,%eax
  40196d:	89 44 24 f0          	mov    %eax,-0x10(%rsp)
  401971:	8b 44 24 f0          	mov    -0x10(%rsp),%eax
  401975:	69 c0 1a 53 00 00    	imul   $0x531a,%eax,%eax
  40197b:	89 44 24 f0          	mov    %eax,-0x10(%rsp)
  40197f:	8b 44 24 d4          	mov    -0x2c(%rsp),%eax
  401983:	69 c0 14 38 00 00    	imul   $0x3814,%eax,%eax
  401989:	89 44 24 d4          	mov    %eax,-0x2c(%rsp)
  40198d:	8b 44 24 dc          	mov    -0x24(%rsp),%eax
  401991:	69 c0 c5 0d 00 00    	imul   $0xdc5,%eax,%eax
  401997:	89 44 24 dc          	mov    %eax,-0x24(%rsp)
  40199b:	8b 44 24 f4          	mov    -0xc(%rsp),%eax
  40199f:	69 c0 cf b4 00 00    	imul   $0xb4cf,%eax,%eax
  4019a5:	89 44 24 f4          	mov    %eax,-0xc(%rsp)
  4019a9:	8b 44 24 f4          	mov    -0xc(%rsp),%eax
  4019ad:	69 c0 46 39 00 00    	imul   $0x3946,%eax,%eax
  4019b3:	89 44 24 f4          	mov    %eax,-0xc(%rsp)
  4019b7:	8b 44 24 d8          	mov    -0x28(%rsp),%eax
  4019bb:	69 c0 e8 ec 00 00    	imul   $0xece8,%eax,%eax
  4019c1:	89 44 24 d8          	mov    %eax,-0x28(%rsp)
  4019c5:	8b 44 24 ec          	mov    -0x14(%rsp),%eax
  4019c9:	69 c0 16 75 00 00    	imul   $0x7516,%eax,%eax
  4019cf:	89 44 24 ec          	mov    %eax,-0x14(%rsp)
  4019d3:	8b 44 24 d0          	mov    -0x30(%rsp),%eax
  4019d7:	69 c0 d2 d9 00 00    	imul   $0xd9d2,%eax,%eax
  4019dd:	89 44 24 d0          	mov    %eax,-0x30(%rsp)
  4019e1:	8b 44 24 f0          	mov    -0x10(%rsp),%eax
  4019e5:	69 c0 e0 3b 00 00    	imul   $0x3be0,%eax,%eax
  4019eb:	89 44 24 f0          	mov    %eax,-0x10(%rsp)
  4019ef:	8b 44 24 e0          	mov    -0x20(%rsp),%eax
  4019f3:	69 c0 b6 c2 00 00    	imul   $0xc2b6,%eax,%eax
  4019f9:	89 44 24 e0          	mov    %eax,-0x20(%rsp)
  4019fd:	8b 44 24 e8          	mov    -0x18(%rsp),%eax
  401a01:	69 c0 63 95 00 00    	imul   $0x9563,%eax,%eax
  401a07:	89 44 24 e8          	mov    %eax,-0x18(%rsp)
  401a0b:	8b 44 24 d8          	mov    -0x28(%rsp),%eax
  401a0f:	69 c0 f3 1c 00 00    	imul   $0x1cf3,%eax,%eax
  401a15:	89 44 24 d8          	mov    %eax,-0x28(%rsp)
  401a19:	8b 44 24 e0          	mov    -0x20(%rsp),%eax
  401a1d:	69 c0 25 3f 00 00    	imul   $0x3f25,%eax,%eax
  401a23:	89 44 24 e0          	mov    %eax,-0x20(%rsp)
  401a27:	8b 44 24 e0          	mov    -0x20(%rsp),%eax
  401a2b:	69 c0 87 75 00 00    	imul   $0x7587,%eax,%eax
  401a31:	89 44 24 e0          	mov    %eax,-0x20(%rsp)
  401a35:	8b 44 24 d4          	mov    -0x2c(%rsp),%eax
  401a39:	69 c0 0d 72 00 00    	imul   $0x720d,%eax,%eax
  401a3f:	89 44 24 d4          	mov    %eax,-0x2c(%rsp)
  401a43:	8b 44 24 dc          	mov    -0x24(%rsp),%eax
  401a47:	69 c0 fa ef 00 00    	imul   $0xeffa,%eax,%eax
  401a4d:	89 44 24 dc          	mov    %eax,-0x24(%rsp)
  401a51:	8b 44 24 d0          	mov    -0x30(%rsp),%eax
  401a55:	69 c0 2f d5 00 00    	imul   $0xd52f,%eax,%eax
  401a5b:	89 44 24 d0          	mov    %eax,-0x30(%rsp)
  401a5f:	8b 44 24 d0          	mov    -0x30(%rsp),%eax
  401a63:	69 c0 1f 67 00 00    	imul   $0x671f,%eax,%eax
  401a69:	89 44 24 d0          	mov    %eax,-0x30(%rsp)
  401a6d:	8b 44 24 f0          	mov    -0x10(%rsp),%eax
  401a71:	69 c0 99 18 00 00    	imul   $0x1899,%eax,%eax
  401a77:	89 44 24 f0          	mov    %eax,-0x10(%rsp)
  401a7b:	8b 44 24 dc          	mov    -0x24(%rsp),%eax
  401a7f:	69 c0 05 e0 00 00    	imul   $0xe005,%eax,%eax
  401a85:	89 44 24 dc          	mov    %eax,-0x24(%rsp)
  401a89:	8b 44 24 e8          	mov    -0x18(%rsp),%eax
  401a8d:	69 c0 a5 ce 00 00    	imul   $0xcea5,%eax,%eax
  401a93:	89 44 24 e8          	mov    %eax,-0x18(%rsp)
  401a97:	8b 44 24 f4          	mov    -0xc(%rsp),%eax
  401a9b:	69 c0 05 f2 00 00    	imul   $0xf205,%eax,%eax
  401aa1:	89 44 24 f4          	mov    %eax,-0xc(%rsp)
  401aa5:	8b 44 24 e8          	mov    -0x18(%rsp),%eax
  401aa9:	69 c0 55 e9 00 00    	imul   $0xe955,%eax,%eax
  401aaf:	89 44 24 e8          	mov    %eax,-0x18(%rsp)
  401ab3:	8b 44 24 f4          	mov    -0xc(%rsp),%eax
  401ab7:	69 c0 10 8f 00 00    	imul   $0x8f10,%eax,%eax
  401abd:	89 44 24 f4          	mov    %eax,-0xc(%rsp)
  401ac1:	8b 44 24 e8          	mov    -0x18(%rsp),%eax
  401ac5:	69 c0 3a 5c 00 00    	imul   $0x5c3a,%eax,%eax
  401acb:	89 44 24 e8          	mov    %eax,-0x18(%rsp)
  401acf:	8b 44 24 e4          	mov    -0x1c(%rsp),%eax
  401ad3:	69 c0 9d 9e 00 00    	imul   $0x9e9d,%eax,%eax
  401ad9:	89 44 24 e4          	mov    %eax,-0x1c(%rsp)
  401add:	8b 44 24 dc          	mov    -0x24(%rsp),%eax
  401ae1:	69 c0 dd c4 00 00    	imul   $0xc4dd,%eax,%eax
  401ae7:	89 44 24 dc          	mov    %eax,-0x24(%rsp)
  401aeb:	8b 44 24 d8          	mov    -0x28(%rsp),%eax
  401aef:	69 c0 84 8e 00 00    	imul   $0x8e84,%eax,%eax
  401af5:	89 44 24 d8          	mov    %eax,-0x28(%rsp)
  401af9:	8b 44 24 dc          	mov    -0x24(%rsp),%eax
  401afd:	69 c0 77 3f 00 00    	imul   $0x3f77,%eax,%eax
  401b03:	89 44 24 dc          	mov    %eax,-0x24(%rsp)
  401b07:	8b 44 24 dc          	mov    -0x24(%rsp),%eax
  401b0b:	69 c0 c7 9c 00 00    	imul   $0x9cc7,%eax,%eax
  401b11:	89 44 24 dc          	mov    %eax,-0x24(%rsp)
  401b15:	8b 44 24 dc          	mov    -0x24(%rsp),%eax
  401b19:	69 c0 02 9c 00 00    	imul   $0x9c02,%eax,%eax
  401b1f:	89 44 24 dc          	mov    %eax,-0x24(%rsp)
  401b23:	8b 44 24 e0          	mov    -0x20(%rsp),%eax
  401b27:	69 c0 ac 76 00 00    	imul   $0x76ac,%eax,%eax
  401b2d:	89 44 24 e0          	mov    %eax,-0x20(%rsp)
  401b31:	8b 44 24 d4          	mov    -0x2c(%rsp),%eax
  401b35:	69 c0 d0 b4 00 00    	imul   $0xb4d0,%eax,%eax
  401b3b:	89 44 24 d4          	mov    %eax,-0x2c(%rsp)
  401b3f:	8b 44 24 f4          	mov    -0xc(%rsp),%eax
  401b43:	69 c0 26 54 00 00    	imul   $0x5426,%eax,%eax
  401b49:	89 44 24 f4          	mov    %eax,-0xc(%rsp)
  401b4d:	8b 44 24 f0          	mov    -0x10(%rsp),%eax
  401b51:	69 c0 b9 f9 00 00    	imul   $0xf9b9,%eax,%eax
  401b57:	89 44 24 f0          	mov    %eax,-0x10(%rsp)
  401b5b:	b8 00 00 00 00       	mov    $0x0,%eax
  401b60:	ba 00 00 00 00       	mov    $0x0,%edx
  401b65:	eb 0b                	jmp    401b72 <scramble+0x4be>
  401b67:	89 c1                	mov    %eax,%ecx
  401b69:	8b 4c 8c d0          	mov    -0x30(%rsp,%rcx,4),%ecx
  401b6d:	01 ca                	add    %ecx,%edx
  401b6f:	83 c0 01             	add    $0x1,%eax
  401b72:	83 f8 09             	cmp    $0x9,%eax
  401b75:	76 f0                	jbe    401b67 <scramble+0x4b3>
  401b77:	89 d0                	mov    %edx,%eax
  401b79:	c3                   	ret    

0000000000401b7a <getbuf>:
  401b7a:	48 83 ec 38          	sub    $0x38,%rsp
  401b7e:	48 89 e7             	mov    %rsp,%rdi
  401b81:	e8 3f 02 00 00       	call   401dc5 <Gets>
  401b86:	b8 01 00 00 00       	mov    $0x1,%eax
  401b8b:	48 83 c4 38          	add    $0x38,%rsp
  401b8f:	c3                   	ret    

0000000000401b90 <touch1>:
  401b90:	48 83 ec 08          	sub    $0x8,%rsp
  401b94:	c7 05 86 39 00 00 01 	movl   $0x1,0x3986(%rip)        # 405524 <vlevel>
  401b9b:	00 00 00 
  401b9e:	48 8d 3d 25 17 00 00 	lea    0x1725(%rip),%rdi        # 4032ca <_IO_stdin_used+0x2ca>
  401ba5:	e8 d6 f4 ff ff       	call   401080 <puts@plt>
  401baa:	bf 01 00 00 00       	mov    $0x1,%edi
  401baf:	e8 24 04 00 00       	call   401fd8 <validate>
  401bb4:	bf 00 00 00 00       	mov    $0x0,%edi
  401bb9:	e8 42 f6 ff ff       	call   401200 <exit@plt>

0000000000401bbe <touch2>:
  401bbe:	48 83 ec 08          	sub    $0x8,%rsp
  401bc2:	89 fe                	mov    %edi,%esi
  401bc4:	c7 05 56 39 00 00 02 	movl   $0x2,0x3956(%rip)        # 405524 <vlevel>
  401bcb:	00 00 00 
  401bce:	39 3d 58 39 00 00    	cmp    %edi,0x3958(%rip)        # 40552c <cookie>
  401bd4:	74 25                	je     401bfb <touch2+0x3d>
  401bd6:	48 8d 3d 3b 17 00 00 	lea    0x173b(%rip),%rdi        # 403318 <_IO_stdin_used+0x318>
  401bdd:	b8 00 00 00 00       	mov    $0x0,%eax
  401be2:	e8 d9 f4 ff ff       	call   4010c0 <printf@plt>
  401be7:	bf 02 00 00 00       	mov    $0x2,%edi
  401bec:	e8 a5 04 00 00       	call   402096 <fail>
  401bf1:	bf 00 00 00 00       	mov    $0x0,%edi
  401bf6:	e8 05 f6 ff ff       	call   401200 <exit@plt>
  401bfb:	48 8d 3d ee 16 00 00 	lea    0x16ee(%rip),%rdi        # 4032f0 <_IO_stdin_used+0x2f0>
  401c02:	b8 00 00 00 00       	mov    $0x0,%eax
  401c07:	e8 b4 f4 ff ff       	call   4010c0 <printf@plt>
  401c0c:	bf 02 00 00 00       	mov    $0x2,%edi
  401c11:	e8 c2 03 00 00       	call   401fd8 <validate>
  401c16:	eb d9                	jmp    401bf1 <touch2+0x33>

0000000000401c18 <hexmatch>:
  401c18:	41 54                	push   %r12
  401c1a:	55                   	push   %rbp
  401c1b:	53                   	push   %rbx
  401c1c:	48 83 ec 70          	sub    $0x70,%rsp
  401c20:	89 fd                	mov    %edi,%ebp
  401c22:	48 89 f3             	mov    %rsi,%rbx
  401c25:	e8 46 f5 ff ff       	call   401170 <random@plt>
  401c2a:	48 89 c1             	mov    %rax,%rcx
  401c2d:	48 ba 0b d7 a3 70 3d 	movabs $0xa3d70a3d70a3d70b,%rdx
  401c34:	0a d7 a3 
  401c37:	48 f7 ea             	imul   %rdx
  401c3a:	48 01 ca             	add    %rcx,%rdx
  401c3d:	48 c1 fa 06          	sar    $0x6,%rdx
  401c41:	48 89 c8             	mov    %rcx,%rax
  401c44:	48 c1 f8 3f          	sar    $0x3f,%rax
  401c48:	48 29 c2             	sub    %rax,%rdx
  401c4b:	48 8d 04 92          	lea    (%rdx,%rdx,4),%rax
  401c4f:	48 8d 04 80          	lea    (%rax,%rax,4),%rax
  401c53:	48 c1 e0 02          	shl    $0x2,%rax
  401c57:	48 29 c1             	sub    %rax,%rcx
  401c5a:	4c 8d 24 0c          	lea    (%rsp,%rcx,1),%r12
  401c5e:	89 ea                	mov    %ebp,%edx
  401c60:	48 8d 35 80 16 00 00 	lea    0x1680(%rip),%rsi        # 4032e7 <_IO_stdin_used+0x2e7>
  401c67:	4c 89 e7             	mov    %r12,%rdi
  401c6a:	b8 00 00 00 00       	mov    $0x0,%eax
  401c6f:	e8 7c f5 ff ff       	call   4011f0 <sprintf@plt>
  401c74:	ba 09 00 00 00       	mov    $0x9,%edx
  401c79:	4c 89 e6             	mov    %r12,%rsi
  401c7c:	48 89 df             	mov    %rbx,%rdi
  401c7f:	e8 dc f3 ff ff       	call   401060 <strncmp@plt>
  401c84:	85 c0                	test   %eax,%eax
  401c86:	0f 94 c0             	sete   %al
  401c89:	0f b6 c0             	movzbl %al,%eax
  401c8c:	48 83 c4 70          	add    $0x70,%rsp
  401c90:	5b                   	pop    %rbx
  401c91:	5d                   	pop    %rbp
  401c92:	41 5c                	pop    %r12
  401c94:	c3                   	ret    

0000000000401c95 <touch3>:
  401c95:	53                   	push   %rbx
  401c96:	48 89 fb             	mov    %rdi,%rbx
  401c99:	c7 05 81 38 00 00 03 	movl   $0x3,0x3881(%rip)        # 405524 <vlevel>
  401ca0:	00 00 00 
  401ca3:	48 89 fe             	mov    %rdi,%rsi
  401ca6:	8b 3d 80 38 00 00    	mov    0x3880(%rip),%edi        # 40552c <cookie>
  401cac:	e8 67 ff ff ff       	call   401c18 <hexmatch>
  401cb1:	85 c0                	test   %eax,%eax
  401cb3:	74 28                	je     401cdd <touch3+0x48>
  401cb5:	48 89 de             	mov    %rbx,%rsi
  401cb8:	48 8d 3d 81 16 00 00 	lea    0x1681(%rip),%rdi        # 403340 <_IO_stdin_used+0x340>
  401cbf:	b8 00 00 00 00       	mov    $0x0,%eax
  401cc4:	e8 f7 f3 ff ff       	call   4010c0 <printf@plt>
  401cc9:	bf 03 00 00 00       	mov    $0x3,%edi
  401cce:	e8 05 03 00 00       	call   401fd8 <validate>
  401cd3:	bf 00 00 00 00       	mov    $0x0,%edi
  401cd8:	e8 23 f5 ff ff       	call   401200 <exit@plt>
  401cdd:	48 89 de             	mov    %rbx,%rsi
  401ce0:	48 8d 3d 81 16 00 00 	lea    0x1681(%rip),%rdi        # 403368 <_IO_stdin_used+0x368>
  401ce7:	b8 00 00 00 00       	mov    $0x0,%eax
  401cec:	e8 cf f3 ff ff       	call   4010c0 <printf@plt>
  401cf1:	bf 03 00 00 00       	mov    $0x3,%edi
  401cf6:	e8 9b 03 00 00       	call   402096 <fail>
  401cfb:	eb d6                	jmp    401cd3 <touch3+0x3e>

0000000000401cfd <test>:
  401cfd:	48 83 ec 08          	sub    $0x8,%rsp
  401d01:	b8 00 00 00 00       	mov    $0x0,%eax
  401d06:	e8 6f fe ff ff       	call   401b7a <getbuf>
  401d0b:	89 c6                	mov    %eax,%esi
  401d0d:	48 8d 3d 7c 16 00 00 	lea    0x167c(%rip),%rdi        # 403390 <_IO_stdin_used+0x390>
  401d14:	b8 00 00 00 00       	mov    $0x0,%eax
  401d19:	e8 a2 f3 ff ff       	call   4010c0 <printf@plt>
  401d1e:	48 83 c4 08          	add    $0x8,%rsp
  401d22:	c3                   	ret    

0000000000401d23 <save_char>:
  401d23:	8b 05 1b 44 00 00    	mov    0x441b(%rip),%eax        # 406144 <gets_cnt>
  401d29:	3d ff 03 00 00       	cmp    $0x3ff,%eax
  401d2e:	7f 4a                	jg     401d7a <save_char+0x57>
  401d30:	89 f9                	mov    %edi,%ecx
  401d32:	c0 e9 04             	shr    $0x4,%cl
  401d35:	8d 14 40             	lea    (%rax,%rax,2),%edx
  401d38:	4c 8d 05 71 19 00 00 	lea    0x1971(%rip),%r8        # 4036b0 <trans_char>
  401d3f:	83 e1 0f             	and    $0xf,%ecx
  401d42:	45 0f b6 0c 08       	movzbl (%r8,%rcx,1),%r9d
  401d47:	48 8d 0d f2 37 00 00 	lea    0x37f2(%rip),%rcx        # 405540 <gets_buf>
  401d4e:	48 63 f2             	movslq %edx,%rsi
  401d51:	44 88 0c 31          	mov    %r9b,(%rcx,%rsi,1)
  401d55:	8d 72 01             	lea    0x1(%rdx),%esi
  401d58:	83 e7 0f             	and    $0xf,%edi
  401d5b:	41 0f b6 3c 38       	movzbl (%r8,%rdi,1),%edi
  401d60:	48 63 f6             	movslq %esi,%rsi
  401d63:	40 88 3c 31          	mov    %dil,(%rcx,%rsi,1)
  401d67:	83 c2 02             	add    $0x2,%edx
  401d6a:	48 63 d2             	movslq %edx,%rdx
  401d6d:	c6 04 11 20          	movb   $0x20,(%rcx,%rdx,1)
  401d71:	83 c0 01             	add    $0x1,%eax
  401d74:	89 05 ca 43 00 00    	mov    %eax,0x43ca(%rip)        # 406144 <gets_cnt>
  401d7a:	c3                   	ret    

0000000000401d7b <save_term>:
  401d7b:	8b 05 c3 43 00 00    	mov    0x43c3(%rip),%eax        # 406144 <gets_cnt>
  401d81:	8d 04 40             	lea    (%rax,%rax,2),%eax
  401d84:	48 98                	cltq   
  401d86:	48 8d 15 b3 37 00 00 	lea    0x37b3(%rip),%rdx        # 405540 <gets_buf>
  401d8d:	c6 04 02 00          	movb   $0x0,(%rdx,%rax,1)
  401d91:	c3                   	ret    

0000000000401d92 <check_fail>:
  401d92:	48 83 ec 08          	sub    $0x8,%rsp
  401d96:	0f be 35 4c 37 00 00 	movsbl 0x374c(%rip),%esi        # 4054e9 <target_prefix>
  401d9d:	48 8d 0d 9c 37 00 00 	lea    0x379c(%rip),%rcx        # 405540 <gets_buf>
  401da4:	8b 15 76 37 00 00    	mov    0x3776(%rip),%edx        # 405520 <check_level>
  401daa:	48 8d 3d 02 16 00 00 	lea    0x1602(%rip),%rdi        # 4033b3 <_IO_stdin_used+0x3b3>
  401db1:	b8 00 00 00 00       	mov    $0x0,%eax
  401db6:	e8 05 f3 ff ff       	call   4010c0 <printf@plt>
  401dbb:	bf 01 00 00 00       	mov    $0x1,%edi
  401dc0:	e8 3b f4 ff ff       	call   401200 <exit@plt>

0000000000401dc5 <Gets>:
  401dc5:	41 54                	push   %r12
  401dc7:	55                   	push   %rbp
  401dc8:	53                   	push   %rbx
  401dc9:	49 89 fc             	mov    %rdi,%r12
  401dcc:	c7 05 6e 43 00 00 00 	movl   $0x0,0x436e(%rip)        # 406144 <gets_cnt>
  401dd3:	00 00 00 
  401dd6:	48 89 fb             	mov    %rdi,%rbx
  401dd9:	eb 11                	jmp    401dec <Gets+0x27>
  401ddb:	48 8d 6b 01          	lea    0x1(%rbx),%rbp
  401ddf:	88 03                	mov    %al,(%rbx)
  401de1:	0f b6 f8             	movzbl %al,%edi
  401de4:	e8 3a ff ff ff       	call   401d23 <save_char>
  401de9:	48 89 eb             	mov    %rbp,%rbx
  401dec:	48 8b 3d 25 37 00 00 	mov    0x3725(%rip),%rdi        # 405518 <infile>
  401df3:	e8 28 f4 ff ff       	call   401220 <getc@plt>
  401df8:	83 f8 ff             	cmp    $0xffffffff,%eax
  401dfb:	74 05                	je     401e02 <Gets+0x3d>
  401dfd:	83 f8 0a             	cmp    $0xa,%eax
  401e00:	75 d9                	jne    401ddb <Gets+0x16>
  401e02:	c6 03 00             	movb   $0x0,(%rbx)
  401e05:	b8 00 00 00 00       	mov    $0x0,%eax
  401e0a:	e8 6c ff ff ff       	call   401d7b <save_term>
  401e0f:	4c 89 e0             	mov    %r12,%rax
  401e12:	5b                   	pop    %rbx
  401e13:	5d                   	pop    %rbp
  401e14:	41 5c                	pop    %r12
  401e16:	c3                   	ret    

0000000000401e17 <notify_server>:
  401e17:	83 3d 12 37 00 00 00 	cmpl   $0x0,0x3712(%rip)        # 405530 <is_checker>
  401e1e:	0f 85 b3 01 00 00    	jne    401fd7 <notify_server+0x1c0>
  401e24:	55                   	push   %rbp
  401e25:	53                   	push   %rbx
  401e26:	48 81 ec 08 40 00 00 	sub    $0x4008,%rsp
  401e2d:	89 fb                	mov    %edi,%ebx
  401e2f:	81 3d 0b 43 00 00 9c 	cmpl   $0x1f9c,0x430b(%rip)        # 406144 <gets_cnt>
  401e36:	1f 00 00 
  401e39:	0f 8f b8 00 00 00    	jg     401ef7 <notify_server+0xe0>
  401e3f:	44 0f be 0d a2 36 00 	movsbl 0x36a2(%rip),%r9d        # 4054e9 <target_prefix>
  401e46:	00 
  401e47:	83 3d 3a 36 00 00 00 	cmpl   $0x0,0x363a(%rip)        # 405488 <notify>
  401e4e:	0f 84 be 00 00 00    	je     401f12 <notify_server+0xfb>
  401e54:	44 8b 05 cd 36 00 00 	mov    0x36cd(%rip),%r8d        # 405528 <authkey>
  401e5b:	85 db                	test   %ebx,%ebx
  401e5d:	0f 84 ba 00 00 00    	je     401f1d <notify_server+0x106>
  401e63:	48 8d 2d 64 15 00 00 	lea    0x1564(%rip),%rbp        # 4033ce <_IO_stdin_used+0x3ce>
  401e6a:	48 8d bc 24 00 20 00 	lea    0x2000(%rsp),%rdi
  401e71:	00 
  401e72:	48 8d 05 c7 36 00 00 	lea    0x36c7(%rip),%rax        # 405540 <gets_buf>
  401e79:	50                   	push   %rax
  401e7a:	56                   	push   %rsi
  401e7b:	48 89 e9             	mov    %rbp,%rcx
  401e7e:	8b 15 ac 32 00 00    	mov    0x32ac(%rip),%edx        # 405130 <target_id>
  401e84:	48 8d 35 48 15 00 00 	lea    0x1548(%rip),%rsi        # 4033d3 <_IO_stdin_used+0x3d3>
  401e8b:	b8 00 00 00 00       	mov    $0x0,%eax
  401e90:	e8 5b f3 ff ff       	call   4011f0 <sprintf@plt>
  401e95:	48 83 c4 10          	add    $0x10,%rsp
  401e99:	83 3d e8 35 00 00 00 	cmpl   $0x0,0x35e8(%rip)        # 405488 <notify>
  401ea0:	0f 84 b7 00 00 00    	je     401f5d <notify_server+0x146>
  401ea6:	85 db                	test   %ebx,%ebx
  401ea8:	0f 84 99 00 00 00    	je     401f47 <notify_server+0x130>
  401eae:	48 8d 8c 24 00 20 00 	lea    0x2000(%rsp),%rcx
  401eb5:	00 
  401eb6:	49 89 e1             	mov    %rsp,%r9
  401eb9:	41 b8 00 00 00 00    	mov    $0x0,%r8d
  401ebf:	48 8b 15 82 32 00 00 	mov    0x3282(%rip),%rdx        # 405148 <lab>
  401ec6:	48 8b 35 b3 35 00 00 	mov    0x35b3(%rip),%rsi        # 405480 <course>
  401ecd:	48 8b 3d 6c 32 00 00 	mov    0x326c(%rip),%rdi        # 405140 <user_id>
  401ed4:	e8 20 10 00 00       	call   402ef9 <driver_post>
  401ed9:	85 c0                	test   %eax,%eax
  401edb:	78 4c                	js     401f29 <notify_server+0x112>
  401edd:	48 8d 3d 34 16 00 00 	lea    0x1634(%rip),%rdi        # 403518 <_IO_stdin_used+0x518>
  401ee4:	e8 97 f1 ff ff       	call   401080 <puts@plt>
  401ee9:	48 8d 3d 0b 15 00 00 	lea    0x150b(%rip),%rdi        # 4033fb <_IO_stdin_used+0x3fb>
  401ef0:	e8 8b f1 ff ff       	call   401080 <puts@plt>
  401ef5:	eb 5c                	jmp    401f53 <notify_server+0x13c>
  401ef7:	48 8d 3d ea 15 00 00 	lea    0x15ea(%rip),%rdi        # 4034e8 <_IO_stdin_used+0x4e8>
  401efe:	b8 00 00 00 00       	mov    $0x0,%eax
  401f03:	e8 b8 f1 ff ff       	call   4010c0 <printf@plt>
  401f08:	bf 01 00 00 00       	mov    $0x1,%edi
  401f0d:	e8 ee f2 ff ff       	call   401200 <exit@plt>
  401f12:	41 b8 ff ff ff ff    	mov    $0xffffffff,%r8d
  401f18:	e9 3e ff ff ff       	jmp    401e5b <notify_server+0x44>
  401f1d:	48 8d 2d a5 14 00 00 	lea    0x14a5(%rip),%rbp        # 4033c9 <_IO_stdin_used+0x3c9>
  401f24:	e9 41 ff ff ff       	jmp    401e6a <notify_server+0x53>
  401f29:	48 89 e6             	mov    %rsp,%rsi
  401f2c:	48 8d 3d bc 14 00 00 	lea    0x14bc(%rip),%rdi        # 4033ef <_IO_stdin_used+0x3ef>
  401f33:	b8 00 00 00 00       	mov    $0x0,%eax
  401f38:	e8 83 f1 ff ff       	call   4010c0 <printf@plt>
  401f3d:	bf 01 00 00 00       	mov    $0x1,%edi
  401f42:	e8 b9 f2 ff ff       	call   401200 <exit@plt>
  401f47:	48 8d 3d b7 14 00 00 	lea    0x14b7(%rip),%rdi        # 403405 <_IO_stdin_used+0x405>
  401f4e:	e8 2d f1 ff ff       	call   401080 <puts@plt>
  401f53:	48 81 c4 08 40 00 00 	add    $0x4008,%rsp
  401f5a:	5b                   	pop    %rbx
  401f5b:	5d                   	pop    %rbp
  401f5c:	c3                   	ret    
  401f5d:	48 89 ee             	mov    %rbp,%rsi
  401f60:	48 8d 3d e9 15 00 00 	lea    0x15e9(%rip),%rdi        # 403550 <_IO_stdin_used+0x550>
  401f67:	b8 00 00 00 00       	mov    $0x0,%eax
  401f6c:	e8 4f f1 ff ff       	call   4010c0 <printf@plt>
  401f71:	48 8b 35 c8 31 00 00 	mov    0x31c8(%rip),%rsi        # 405140 <user_id>
  401f78:	48 8d 3d 8d 14 00 00 	lea    0x148d(%rip),%rdi        # 40340c <_IO_stdin_used+0x40c>
  401f7f:	b8 00 00 00 00       	mov    $0x0,%eax
  401f84:	e8 37 f1 ff ff       	call   4010c0 <printf@plt>
  401f89:	48 8b 35 f0 34 00 00 	mov    0x34f0(%rip),%rsi        # 405480 <course>
  401f90:	48 8d 3d 82 14 00 00 	lea    0x1482(%rip),%rdi        # 403419 <_IO_stdin_used+0x419>
  401f97:	b8 00 00 00 00       	mov    $0x0,%eax
  401f9c:	e8 1f f1 ff ff       	call   4010c0 <printf@plt>
  401fa1:	48 8b 35 a0 31 00 00 	mov    0x31a0(%rip),%rsi        # 405148 <lab>
  401fa8:	48 8d 3d 76 14 00 00 	lea    0x1476(%rip),%rdi        # 403425 <_IO_stdin_used+0x425>
  401faf:	b8 00 00 00 00       	mov    $0x0,%eax
  401fb4:	e8 07 f1 ff ff       	call   4010c0 <printf@plt>
  401fb9:	48 8d b4 24 00 20 00 	lea    0x2000(%rsp),%rsi
  401fc0:	00 
  401fc1:	48 8d 3d 66 14 00 00 	lea    0x1466(%rip),%rdi        # 40342e <_IO_stdin_used+0x42e>
  401fc8:	b8 00 00 00 00       	mov    $0x0,%eax
  401fcd:	e8 ee f0 ff ff       	call   4010c0 <printf@plt>
  401fd2:	e9 7c ff ff ff       	jmp    401f53 <notify_server+0x13c>
  401fd7:	c3                   	ret    

0000000000401fd8 <validate>:
  401fd8:	53                   	push   %rbx
  401fd9:	89 fb                	mov    %edi,%ebx
  401fdb:	83 3d 4e 35 00 00 00 	cmpl   $0x0,0x354e(%rip)        # 405530 <is_checker>
  401fe2:	74 68                	je     40204c <validate+0x74>
  401fe4:	39 3d 3a 35 00 00    	cmp    %edi,0x353a(%rip)        # 405524 <vlevel>
  401fea:	75 2d                	jne    402019 <validate+0x41>
  401fec:	8b 35 2e 35 00 00    	mov    0x352e(%rip),%esi        # 405520 <check_level>
  401ff2:	39 fe                	cmp    %edi,%esi
  401ff4:	75 39                	jne    40202f <validate+0x57>
  401ff6:	0f be 35 ec 34 00 00 	movsbl 0x34ec(%rip),%esi        # 4054e9 <target_prefix>
  401ffd:	48 8d 0d 3c 35 00 00 	lea    0x353c(%rip),%rcx        # 405540 <gets_buf>
  402004:	89 fa                	mov    %edi,%edx
  402006:	48 8d 3d 4b 14 00 00 	lea    0x144b(%rip),%rdi        # 403458 <_IO_stdin_used+0x458>
  40200d:	b8 00 00 00 00       	mov    $0x0,%eax
  402012:	e8 a9 f0 ff ff       	call   4010c0 <printf@plt>
  402017:	5b                   	pop    %rbx
  402018:	c3                   	ret    
  402019:	48 8d 3d 1a 14 00 00 	lea    0x141a(%rip),%rdi        # 40343a <_IO_stdin_used+0x43a>
  402020:	e8 5b f0 ff ff       	call   401080 <puts@plt>
  402025:	b8 00 00 00 00       	mov    $0x0,%eax
  40202a:	e8 63 fd ff ff       	call   401d92 <check_fail>
  40202f:	89 fa                	mov    %edi,%edx
  402031:	48 8d 3d 40 15 00 00 	lea    0x1540(%rip),%rdi        # 403578 <_IO_stdin_used+0x578>
  402038:	b8 00 00 00 00       	mov    $0x0,%eax
  40203d:	e8 7e f0 ff ff       	call   4010c0 <printf@plt>
  402042:	b8 00 00 00 00       	mov    $0x0,%eax
  402047:	e8 46 fd ff ff       	call   401d92 <check_fail>
  40204c:	39 3d d2 34 00 00    	cmp    %edi,0x34d2(%rip)        # 405524 <vlevel>
  402052:	74 1a                	je     40206e <validate+0x96>
  402054:	48 8d 3d df 13 00 00 	lea    0x13df(%rip),%rdi        # 40343a <_IO_stdin_used+0x43a>
  40205b:	e8 20 f0 ff ff       	call   401080 <puts@plt>
  402060:	89 de                	mov    %ebx,%esi
  402062:	bf 00 00 00 00       	mov    $0x0,%edi
  402067:	e8 ab fd ff ff       	call   401e17 <notify_server>
  40206c:	eb a9                	jmp    402017 <validate+0x3f>
  40206e:	0f be 15 74 34 00 00 	movsbl 0x3474(%rip),%edx        # 4054e9 <target_prefix>
  402075:	89 fe                	mov    %edi,%esi
  402077:	48 8d 3d 22 15 00 00 	lea    0x1522(%rip),%rdi        # 4035a0 <_IO_stdin_used+0x5a0>
  40207e:	b8 00 00 00 00       	mov    $0x0,%eax
  402083:	e8 38 f0 ff ff       	call   4010c0 <printf@plt>
  402088:	89 de                	mov    %ebx,%esi
  40208a:	bf 01 00 00 00       	mov    $0x1,%edi
  40208f:	e8 83 fd ff ff       	call   401e17 <notify_server>
  402094:	eb 81                	jmp    402017 <validate+0x3f>

0000000000402096 <fail>:
  402096:	48 83 ec 08          	sub    $0x8,%rsp
  40209a:	83 3d 8f 34 00 00 00 	cmpl   $0x0,0x348f(%rip)        # 405530 <is_checker>
  4020a1:	75 11                	jne    4020b4 <fail+0x1e>
  4020a3:	89 fe                	mov    %edi,%esi
  4020a5:	bf 00 00 00 00       	mov    $0x0,%edi
  4020aa:	e8 68 fd ff ff       	call   401e17 <notify_server>
  4020af:	48 83 c4 08          	add    $0x8,%rsp
  4020b3:	c3                   	ret    
  4020b4:	b8 00 00 00 00       	mov    $0x0,%eax
  4020b9:	e8 d4 fc ff ff       	call   401d92 <check_fail>

00000000004020be <bushandler>:
  4020be:	48 83 ec 08          	sub    $0x8,%rsp
  4020c2:	83 3d 67 34 00 00 00 	cmpl   $0x0,0x3467(%rip)        # 405530 <is_checker>
  4020c9:	74 16                	je     4020e1 <bushandler+0x23>
  4020cb:	48 8d 3d 9b 13 00 00 	lea    0x139b(%rip),%rdi        # 40346d <_IO_stdin_used+0x46d>
  4020d2:	e8 a9 ef ff ff       	call   401080 <puts@plt>
  4020d7:	b8 00 00 00 00       	mov    $0x0,%eax
  4020dc:	e8 b1 fc ff ff       	call   401d92 <check_fail>
  4020e1:	48 8d 3d f0 14 00 00 	lea    0x14f0(%rip),%rdi        # 4035d8 <_IO_stdin_used+0x5d8>
  4020e8:	e8 93 ef ff ff       	call   401080 <puts@plt>
  4020ed:	48 8d 3d 83 13 00 00 	lea    0x1383(%rip),%rdi        # 403477 <_IO_stdin_used+0x477>
  4020f4:	e8 87 ef ff ff       	call   401080 <puts@plt>
  4020f9:	be 00 00 00 00       	mov    $0x0,%esi
  4020fe:	bf 00 00 00 00       	mov    $0x0,%edi
  402103:	e8 0f fd ff ff       	call   401e17 <notify_server>
  402108:	bf 01 00 00 00       	mov    $0x1,%edi
  40210d:	e8 ee f0 ff ff       	call   401200 <exit@plt>

0000000000402112 <seghandler>:
  402112:	48 83 ec 08          	sub    $0x8,%rsp
  402116:	83 3d 13 34 00 00 00 	cmpl   $0x0,0x3413(%rip)        # 405530 <is_checker>
  40211d:	74 16                	je     402135 <seghandler+0x23>
  40211f:	48 8d 3d 67 13 00 00 	lea    0x1367(%rip),%rdi        # 40348d <_IO_stdin_used+0x48d>
  402126:	e8 55 ef ff ff       	call   401080 <puts@plt>
  40212b:	b8 00 00 00 00       	mov    $0x0,%eax
  402130:	e8 5d fc ff ff       	call   401d92 <check_fail>
  402135:	48 8d 3d bc 14 00 00 	lea    0x14bc(%rip),%rdi        # 4035f8 <_IO_stdin_used+0x5f8>
  40213c:	e8 3f ef ff ff       	call   401080 <puts@plt>
  402141:	48 8d 3d 2f 13 00 00 	lea    0x132f(%rip),%rdi        # 403477 <_IO_stdin_used+0x477>
  402148:	e8 33 ef ff ff       	call   401080 <puts@plt>
  40214d:	be 00 00 00 00       	mov    $0x0,%esi
  402152:	bf 00 00 00 00       	mov    $0x0,%edi
  402157:	e8 bb fc ff ff       	call   401e17 <notify_server>
  40215c:	bf 01 00 00 00       	mov    $0x1,%edi
  402161:	e8 9a f0 ff ff       	call   401200 <exit@plt>

0000000000402166 <illegalhandler>:
  402166:	48 83 ec 08          	sub    $0x8,%rsp
  40216a:	83 3d bf 33 00 00 00 	cmpl   $0x0,0x33bf(%rip)        # 405530 <is_checker>
  402171:	74 16                	je     402189 <illegalhandler+0x23>
  402173:	48 8d 3d 26 13 00 00 	lea    0x1326(%rip),%rdi        # 4034a0 <_IO_stdin_used+0x4a0>
  40217a:	e8 01 ef ff ff       	call   401080 <puts@plt>
  40217f:	b8 00 00 00 00       	mov    $0x0,%eax
  402184:	e8 09 fc ff ff       	call   401d92 <check_fail>
  402189:	48 8d 3d 90 14 00 00 	lea    0x1490(%rip),%rdi        # 403620 <_IO_stdin_used+0x620>
  402190:	e8 eb ee ff ff       	call   401080 <puts@plt>
  402195:	48 8d 3d db 12 00 00 	lea    0x12db(%rip),%rdi        # 403477 <_IO_stdin_used+0x477>
  40219c:	e8 df ee ff ff       	call   401080 <puts@plt>
  4021a1:	be 00 00 00 00       	mov    $0x0,%esi
  4021a6:	bf 00 00 00 00       	mov    $0x0,%edi
  4021ab:	e8 67 fc ff ff       	call   401e17 <notify_server>
  4021b0:	bf 01 00 00 00       	mov    $0x1,%edi
  4021b5:	e8 46 f0 ff ff       	call   401200 <exit@plt>

00000000004021ba <sigalrmhandler>:
  4021ba:	48 83 ec 08          	sub    $0x8,%rsp
  4021be:	83 3d 6b 33 00 00 00 	cmpl   $0x0,0x336b(%rip)        # 405530 <is_checker>
  4021c5:	74 16                	je     4021dd <sigalrmhandler+0x23>
  4021c7:	48 8d 3d e6 12 00 00 	lea    0x12e6(%rip),%rdi        # 4034b4 <_IO_stdin_used+0x4b4>
  4021ce:	e8 ad ee ff ff       	call   401080 <puts@plt>
  4021d3:	b8 00 00 00 00       	mov    $0x0,%eax
  4021d8:	e8 b5 fb ff ff       	call   401d92 <check_fail>
  4021dd:	be 05 00 00 00       	mov    $0x5,%esi
  4021e2:	48 8d 3d 67 14 00 00 	lea    0x1467(%rip),%rdi        # 403650 <_IO_stdin_used+0x650>
  4021e9:	b8 00 00 00 00       	mov    $0x0,%eax
  4021ee:	e8 cd ee ff ff       	call   4010c0 <printf@plt>
  4021f3:	be 00 00 00 00       	mov    $0x0,%esi
  4021f8:	bf 00 00 00 00       	mov    $0x0,%edi
  4021fd:	e8 15 fc ff ff       	call   401e17 <notify_server>
  402202:	bf 01 00 00 00       	mov    $0x1,%edi
  402207:	e8 f4 ef ff ff       	call   401200 <exit@plt>

000000000040220c <launch>:
  40220c:	55                   	push   %rbp
  40220d:	48 89 e5             	mov    %rsp,%rbp
  402210:	48 89 fa             	mov    %rdi,%rdx
  402213:	48 8d 47 17          	lea    0x17(%rdi),%rax
  402217:	48 83 e0 f0          	and    $0xfffffffffffffff0,%rax
  40221b:	48 29 c4             	sub    %rax,%rsp
  40221e:	48 8d 7c 24 0f       	lea    0xf(%rsp),%rdi
  402223:	48 83 e7 f0          	and    $0xfffffffffffffff0,%rdi
  402227:	be f4 00 00 00       	mov    $0xf4,%esi
  40222c:	e8 9f ee ff ff       	call   4010d0 <memset@plt>
  402231:	48 8b 05 68 32 00 00 	mov    0x3268(%rip),%rax        # 4054a0 <stdin@GLIBC_2.2.5>
  402238:	48 39 05 d9 32 00 00 	cmp    %rax,0x32d9(%rip)        # 405518 <infile>
  40223f:	74 2b                	je     40226c <launch+0x60>
  402241:	c7 05 d9 32 00 00 00 	movl   $0x0,0x32d9(%rip)        # 405524 <vlevel>
  402248:	00 00 00 
  40224b:	b8 00 00 00 00       	mov    $0x0,%eax
  402250:	e8 a8 fa ff ff       	call   401cfd <test>
  402255:	83 3d d4 32 00 00 00 	cmpl   $0x0,0x32d4(%rip)        # 405530 <is_checker>
  40225c:	75 21                	jne    40227f <launch+0x73>
  40225e:	48 8d 3d 6f 12 00 00 	lea    0x126f(%rip),%rdi        # 4034d4 <_IO_stdin_used+0x4d4>
  402265:	e8 16 ee ff ff       	call   401080 <puts@plt>
  40226a:	c9                   	leave  
  40226b:	c3                   	ret    
  40226c:	48 8d 3d 49 12 00 00 	lea    0x1249(%rip),%rdi        # 4034bc <_IO_stdin_used+0x4bc>
  402273:	b8 00 00 00 00       	mov    $0x0,%eax
  402278:	e8 43 ee ff ff       	call   4010c0 <printf@plt>
  40227d:	eb c2                	jmp    402241 <launch+0x35>
  40227f:	48 8d 3d 43 12 00 00 	lea    0x1243(%rip),%rdi        # 4034c9 <_IO_stdin_used+0x4c9>
  402286:	e8 f5 ed ff ff       	call   401080 <puts@plt>
  40228b:	b8 00 00 00 00       	mov    $0x0,%eax
  402290:	e8 fd fa ff ff       	call   401d92 <check_fail>

0000000000402295 <stable_launch>:
  402295:	53                   	push   %rbx
  402296:	48 89 3d 73 32 00 00 	mov    %rdi,0x3273(%rip)        # 405510 <global_offset>
  40229d:	41 b9 00 00 00 00    	mov    $0x0,%r9d
  4022a3:	41 b8 00 00 00 00    	mov    $0x0,%r8d
  4022a9:	b9 32 01 00 00       	mov    $0x132,%ecx
  4022ae:	ba 07 00 00 00       	mov    $0x7,%edx
  4022b3:	be 00 00 10 00       	mov    $0x100000,%esi
  4022b8:	bf 00 60 58 55       	mov    $0x55586000,%edi
  4022bd:	e8 ee ed ff ff       	call   4010b0 <mmap@plt>
  4022c2:	48 89 c3             	mov    %rax,%rbx
  4022c5:	48 3d 00 60 58 55    	cmp    $0x55586000,%rax
  4022cb:	75 43                	jne    402310 <stable_launch+0x7b>
  4022cd:	48 8d 90 f8 ff 0f 00 	lea    0xffff8(%rax),%rdx
  4022d4:	48 89 15 2d 32 00 00 	mov    %rdx,0x322d(%rip)        # 405508 <stack_top>
  4022db:	48 89 e0             	mov    %rsp,%rax
  4022de:	48 89 d4             	mov    %rdx,%rsp
  4022e1:	48 89 c2             	mov    %rax,%rdx
  4022e4:	48 89 15 15 32 00 00 	mov    %rdx,0x3215(%rip)        # 405500 <global_save_stack>
  4022eb:	48 8b 3d 1e 32 00 00 	mov    0x321e(%rip),%rdi        # 405510 <global_offset>
  4022f2:	e8 15 ff ff ff       	call   40220c <launch>
  4022f7:	48 8b 05 02 32 00 00 	mov    0x3202(%rip),%rax        # 405500 <global_save_stack>
  4022fe:	48 89 c4             	mov    %rax,%rsp
  402301:	be 00 00 10 00       	mov    $0x100000,%esi
  402306:	48 89 df             	mov    %rbx,%rdi
  402309:	e8 82 ee ff ff       	call   401190 <munmap@plt>
  40230e:	5b                   	pop    %rbx
  40230f:	c3                   	ret    
  402310:	be 00 00 10 00       	mov    $0x100000,%esi
  402315:	48 89 c7             	mov    %rax,%rdi
  402318:	e8 73 ee ff ff       	call   401190 <munmap@plt>
  40231d:	ba 00 60 58 55       	mov    $0x55586000,%edx
  402322:	48 8d 35 5f 13 00 00 	lea    0x135f(%rip),%rsi        # 403688 <_IO_stdin_used+0x688>
  402329:	48 8b 3d b0 31 00 00 	mov    0x31b0(%rip),%rdi        # 4054e0 <stderr@GLIBC_2.2.5>
  402330:	b8 00 00 00 00       	mov    $0x0,%eax
  402335:	e8 f6 ed ff ff       	call   401130 <fprintf@plt>
  40233a:	bf 01 00 00 00       	mov    $0x1,%edi
  40233f:	e8 bc ee ff ff       	call   401200 <exit@plt>

0000000000402344 <rio_readinitb>:
  402344:	89 37                	mov    %esi,(%rdi)
  402346:	c7 47 04 00 00 00 00 	movl   $0x0,0x4(%rdi)
  40234d:	48 8d 47 10          	lea    0x10(%rdi),%rax
  402351:	48 89 47 08          	mov    %rax,0x8(%rdi)
  402355:	c3                   	ret    

0000000000402356 <sigalrm_handler>:
  402356:	48 83 ec 08          	sub    $0x8,%rsp
  40235a:	ba 00 00 00 00       	mov    $0x0,%edx
  40235f:	48 8d 35 5a 13 00 00 	lea    0x135a(%rip),%rsi        # 4036c0 <trans_char+0x10>
  402366:	48 8b 3d 73 31 00 00 	mov    0x3173(%rip),%rdi        # 4054e0 <stderr@GLIBC_2.2.5>
  40236d:	b8 00 00 00 00       	mov    $0x0,%eax
  402372:	e8 b9 ed ff ff       	call   401130 <fprintf@plt>
  402377:	bf 01 00 00 00       	mov    $0x1,%edi
  40237c:	e8 7f ee ff ff       	call   401200 <exit@plt>

0000000000402381 <urlencode>:
  402381:	41 54                	push   %r12
  402383:	55                   	push   %rbp
  402384:	53                   	push   %rbx
  402385:	48 83 ec 10          	sub    $0x10,%rsp
  402389:	48 89 fb             	mov    %rdi,%rbx
  40238c:	48 89 f5             	mov    %rsi,%rbp
  40238f:	e8 0c ed ff ff       	call   4010a0 <strlen@plt>
  402394:	eb 0e                	jmp    4023a4 <urlencode+0x23>
  402396:	88 55 00             	mov    %dl,0x0(%rbp)
  402399:	48 8d 6d 01          	lea    0x1(%rbp),%rbp
  40239d:	48 83 c3 01          	add    $0x1,%rbx
  4023a1:	44 89 e0             	mov    %r12d,%eax
  4023a4:	44 8d 60 ff          	lea    -0x1(%rax),%r12d
  4023a8:	85 c0                	test   %eax,%eax
  4023aa:	0f 84 95 00 00 00    	je     402445 <urlencode+0xc4>
  4023b0:	0f b6 13             	movzbl (%rbx),%edx
  4023b3:	80 fa 2a             	cmp    $0x2a,%dl
  4023b6:	0f 94 c1             	sete   %cl
  4023b9:	80 fa 2d             	cmp    $0x2d,%dl
  4023bc:	0f 94 c0             	sete   %al
  4023bf:	08 c1                	or     %al,%cl
  4023c1:	75 d3                	jne    402396 <urlencode+0x15>
  4023c3:	80 fa 2e             	cmp    $0x2e,%dl
  4023c6:	74 ce                	je     402396 <urlencode+0x15>
  4023c8:	80 fa 5f             	cmp    $0x5f,%dl
  4023cb:	74 c9                	je     402396 <urlencode+0x15>
  4023cd:	8d 42 d0             	lea    -0x30(%rdx),%eax
  4023d0:	3c 09                	cmp    $0x9,%al
  4023d2:	76 c2                	jbe    402396 <urlencode+0x15>
  4023d4:	8d 42 bf             	lea    -0x41(%rdx),%eax
  4023d7:	3c 19                	cmp    $0x19,%al
  4023d9:	76 bb                	jbe    402396 <urlencode+0x15>
  4023db:	8d 42 9f             	lea    -0x61(%rdx),%eax
  4023de:	3c 19                	cmp    $0x19,%al
  4023e0:	76 b4                	jbe    402396 <urlencode+0x15>
  4023e2:	80 fa 20             	cmp    $0x20,%dl
  4023e5:	74 4c                	je     402433 <urlencode+0xb2>
  4023e7:	8d 42 e0             	lea    -0x20(%rdx),%eax
  4023ea:	3c 5f                	cmp    $0x5f,%al
  4023ec:	0f 96 c1             	setbe  %cl
  4023ef:	80 fa 09             	cmp    $0x9,%dl
  4023f2:	0f 94 c0             	sete   %al
  4023f5:	08 c1                	or     %al,%cl
  4023f7:	74 47                	je     402440 <urlencode+0xbf>
  4023f9:	0f b6 d2             	movzbl %dl,%edx
  4023fc:	48 8d 7c 24 08       	lea    0x8(%rsp),%rdi
  402401:	48 8d 35 4d 13 00 00 	lea    0x134d(%rip),%rsi        # 403755 <trans_char+0xa5>
  402408:	b8 00 00 00 00       	mov    $0x0,%eax
  40240d:	e8 de ed ff ff       	call   4011f0 <sprintf@plt>
  402412:	0f b6 44 24 08       	movzbl 0x8(%rsp),%eax
  402417:	88 45 00             	mov    %al,0x0(%rbp)
  40241a:	0f b6 44 24 09       	movzbl 0x9(%rsp),%eax
  40241f:	88 45 01             	mov    %al,0x1(%rbp)
  402422:	0f b6 44 24 0a       	movzbl 0xa(%rsp),%eax
  402427:	88 45 02             	mov    %al,0x2(%rbp)
  40242a:	48 8d 6d 03          	lea    0x3(%rbp),%rbp
  40242e:	e9 6a ff ff ff       	jmp    40239d <urlencode+0x1c>
  402433:	c6 45 00 2b          	movb   $0x2b,0x0(%rbp)
  402437:	48 8d 6d 01          	lea    0x1(%rbp),%rbp
  40243b:	e9 5d ff ff ff       	jmp    40239d <urlencode+0x1c>
  402440:	b8 ff ff ff ff       	mov    $0xffffffff,%eax
  402445:	48 83 c4 10          	add    $0x10,%rsp
  402449:	5b                   	pop    %rbx
  40244a:	5d                   	pop    %rbp
  40244b:	41 5c                	pop    %r12
  40244d:	c3                   	ret    

000000000040244e <rio_writen>:
  40244e:	41 55                	push   %r13
  402450:	41 54                	push   %r12
  402452:	55                   	push   %rbp
  402453:	53                   	push   %rbx
  402454:	48 83 ec 08          	sub    $0x8,%rsp
  402458:	41 89 fc             	mov    %edi,%r12d
  40245b:	48 89 f5             	mov    %rsi,%rbp
  40245e:	49 89 d5             	mov    %rdx,%r13
  402461:	48 89 d3             	mov    %rdx,%rbx
  402464:	eb 06                	jmp    40246c <rio_writen+0x1e>
  402466:	48 29 c3             	sub    %rax,%rbx
  402469:	48 01 c5             	add    %rax,%rbp
  40246c:	48 85 db             	test   %rbx,%rbx
  40246f:	74 24                	je     402495 <rio_writen+0x47>
  402471:	48 89 da             	mov    %rbx,%rdx
  402474:	48 89 ee             	mov    %rbp,%rsi
  402477:	44 89 e7             	mov    %r12d,%edi
  40247a:	e8 11 ec ff ff       	call   401090 <write@plt>
  40247f:	48 85 c0             	test   %rax,%rax
  402482:	7f e2                	jg     402466 <rio_writen+0x18>
  402484:	e8 b7 eb ff ff       	call   401040 <__errno_location@plt>
  402489:	83 38 04             	cmpl   $0x4,(%rax)
  40248c:	75 15                	jne    4024a3 <rio_writen+0x55>
  40248e:	b8 00 00 00 00       	mov    $0x0,%eax
  402493:	eb d1                	jmp    402466 <rio_writen+0x18>
  402495:	4c 89 e8             	mov    %r13,%rax
  402498:	48 83 c4 08          	add    $0x8,%rsp
  40249c:	5b                   	pop    %rbx
  40249d:	5d                   	pop    %rbp
  40249e:	41 5c                	pop    %r12
  4024a0:	41 5d                	pop    %r13
  4024a2:	c3                   	ret    
  4024a3:	48 c7 c0 ff ff ff ff 	mov    $0xffffffffffffffff,%rax
  4024aa:	eb ec                	jmp    402498 <rio_writen+0x4a>

00000000004024ac <rio_read>:
  4024ac:	41 55                	push   %r13
  4024ae:	41 54                	push   %r12
  4024b0:	55                   	push   %rbp
  4024b1:	53                   	push   %rbx
  4024b2:	48 83 ec 08          	sub    $0x8,%rsp
  4024b6:	48 89 fb             	mov    %rdi,%rbx
  4024b9:	49 89 f5             	mov    %rsi,%r13
  4024bc:	49 89 d4             	mov    %rdx,%r12
  4024bf:	eb 0a                	jmp    4024cb <rio_read+0x1f>
  4024c1:	e8 7a eb ff ff       	call   401040 <__errno_location@plt>
  4024c6:	83 38 04             	cmpl   $0x4,(%rax)
  4024c9:	75 5a                	jne    402525 <rio_read+0x79>
  4024cb:	8b 6b 04             	mov    0x4(%rbx),%ebp
  4024ce:	85 ed                	test   %ebp,%ebp
  4024d0:	7f 22                	jg     4024f4 <rio_read+0x48>
  4024d2:	48 8d 6b 10          	lea    0x10(%rbx),%rbp
  4024d6:	ba 00 20 00 00       	mov    $0x2000,%edx
  4024db:	48 89 ee             	mov    %rbp,%rsi
  4024de:	8b 3b                	mov    (%rbx),%edi
  4024e0:	e8 1b ec ff ff       	call   401100 <read@plt>
  4024e5:	89 43 04             	mov    %eax,0x4(%rbx)
  4024e8:	85 c0                	test   %eax,%eax
  4024ea:	78 d5                	js     4024c1 <rio_read+0x15>
  4024ec:	74 40                	je     40252e <rio_read+0x82>
  4024ee:	48 89 6b 08          	mov    %rbp,0x8(%rbx)
  4024f2:	eb d7                	jmp    4024cb <rio_read+0x1f>
  4024f4:	89 e8                	mov    %ebp,%eax
  4024f6:	4c 39 e0             	cmp    %r12,%rax
  4024f9:	72 03                	jb     4024fe <rio_read+0x52>
  4024fb:	44 89 e5             	mov    %r12d,%ebp
  4024fe:	4c 63 e5             	movslq %ebp,%r12
  402501:	48 8b 73 08          	mov    0x8(%rbx),%rsi
  402505:	4c 89 e2             	mov    %r12,%rdx
  402508:	4c 89 ef             	mov    %r13,%rdi
  40250b:	e8 40 ec ff ff       	call   401150 <memcpy@plt>
  402510:	4c 01 63 08          	add    %r12,0x8(%rbx)
  402514:	29 6b 04             	sub    %ebp,0x4(%rbx)
  402517:	4c 89 e0             	mov    %r12,%rax
  40251a:	48 83 c4 08          	add    $0x8,%rsp
  40251e:	5b                   	pop    %rbx
  40251f:	5d                   	pop    %rbp
  402520:	41 5c                	pop    %r12
  402522:	41 5d                	pop    %r13
  402524:	c3                   	ret    
  402525:	48 c7 c0 ff ff ff ff 	mov    $0xffffffffffffffff,%rax
  40252c:	eb ec                	jmp    40251a <rio_read+0x6e>
  40252e:	b8 00 00 00 00       	mov    $0x0,%eax
  402533:	eb e5                	jmp    40251a <rio_read+0x6e>

0000000000402535 <rio_readlineb>:
  402535:	41 55                	push   %r13
  402537:	41 54                	push   %r12
  402539:	55                   	push   %rbp
  40253a:	53                   	push   %rbx
  40253b:	48 83 ec 18          	sub    $0x18,%rsp
  40253f:	49 89 fd             	mov    %rdi,%r13
  402542:	48 89 f5             	mov    %rsi,%rbp
  402545:	49 89 d4             	mov    %rdx,%r12
  402548:	bb 01 00 00 00       	mov    $0x1,%ebx
  40254d:	eb 18                	jmp    402567 <rio_readlineb+0x32>
  40254f:	85 c0                	test   %eax,%eax
  402551:	75 55                	jne    4025a8 <rio_readlineb+0x73>
  402553:	48 83 fb 01          	cmp    $0x1,%rbx
  402557:	75 3d                	jne    402596 <rio_readlineb+0x61>
  402559:	b8 00 00 00 00       	mov    $0x0,%eax
  40255e:	eb 3d                	jmp    40259d <rio_readlineb+0x68>
  402560:	48 83 c3 01          	add    $0x1,%rbx
  402564:	48 89 d5             	mov    %rdx,%rbp
  402567:	4c 39 e3             	cmp    %r12,%rbx
  40256a:	73 2a                	jae    402596 <rio_readlineb+0x61>
  40256c:	48 8d 74 24 0f       	lea    0xf(%rsp),%rsi
  402571:	ba 01 00 00 00       	mov    $0x1,%edx
  402576:	4c 89 ef             	mov    %r13,%rdi
  402579:	e8 2e ff ff ff       	call   4024ac <rio_read>
  40257e:	83 f8 01             	cmp    $0x1,%eax
  402581:	75 cc                	jne    40254f <rio_readlineb+0x1a>
  402583:	48 8d 55 01          	lea    0x1(%rbp),%rdx
  402587:	0f b6 44 24 0f       	movzbl 0xf(%rsp),%eax
  40258c:	88 45 00             	mov    %al,0x0(%rbp)
  40258f:	3c 0a                	cmp    $0xa,%al
  402591:	75 cd                	jne    402560 <rio_readlineb+0x2b>
  402593:	48 89 d5             	mov    %rdx,%rbp
  402596:	c6 45 00 00          	movb   $0x0,0x0(%rbp)
  40259a:	48 89 d8             	mov    %rbx,%rax
  40259d:	48 83 c4 18          	add    $0x18,%rsp
  4025a1:	5b                   	pop    %rbx
  4025a2:	5d                   	pop    %rbp
  4025a3:	41 5c                	pop    %r12
  4025a5:	41 5d                	pop    %r13
  4025a7:	c3                   	ret    
  4025a8:	48 c7 c0 ff ff ff ff 	mov    $0xffffffffffffffff,%rax
  4025af:	eb ec                	jmp    40259d <rio_readlineb+0x68>

00000000004025b1 <submitr>:
  4025b1:	41 57                	push   %r15
  4025b3:	41 56                	push   %r14
  4025b5:	41 55                	push   %r13
  4025b7:	41 54                	push   %r12
  4025b9:	55                   	push   %rbp
  4025ba:	53                   	push   %rbx
  4025bb:	48 81 ec 58 a0 00 00 	sub    $0xa058,%rsp
  4025c2:	49 89 fc             	mov    %rdi,%r12
  4025c5:	89 74 24 10          	mov    %esi,0x10(%rsp)
  4025c9:	49 89 d6             	mov    %rdx,%r14
  4025cc:	48 89 4c 24 08       	mov    %rcx,0x8(%rsp)
  4025d1:	4c 89 44 24 18       	mov    %r8,0x18(%rsp)
  4025d6:	4d 89 cd             	mov    %r9,%r13
  4025d9:	48 8b ac 24 90 a0 00 	mov    0xa090(%rsp),%rbp
  4025e0:	00 
  4025e1:	c7 84 24 2c 20 00 00 	movl   $0x0,0x202c(%rsp)
  4025e8:	00 00 00 00 
  4025ec:	ba 00 00 00 00       	mov    $0x0,%edx
  4025f1:	be 01 00 00 00       	mov    $0x1,%esi
  4025f6:	bf 02 00 00 00       	mov    $0x2,%edi
  4025fb:	e8 30 ec ff ff       	call   401230 <socket@plt>
  402600:	85 c0                	test   %eax,%eax
  402602:	0f 88 6c 02 00 00    	js     402874 <submitr+0x2c3>
  402608:	89 c3                	mov    %eax,%ebx
  40260a:	4c 89 e7             	mov    %r12,%rdi
  40260d:	e8 0e eb ff ff       	call   401120 <gethostbyname@plt>
  402612:	48 85 c0             	test   %rax,%rax
  402615:	0f 84 a5 02 00 00    	je     4028c0 <submitr+0x30f>
  40261b:	4c 8d bc 24 40 a0 00 	lea    0xa040(%rsp),%r15
  402622:	00 
  402623:	48 c7 84 24 40 a0 00 	movq   $0x0,0xa040(%rsp)
  40262a:	00 00 00 00 00 
  40262f:	48 c7 84 24 48 a0 00 	movq   $0x0,0xa048(%rsp)
  402636:	00 00 00 00 00 
  40263b:	66 c7 84 24 40 a0 00 	movw   $0x2,0xa040(%rsp)
  402642:	00 02 00 
  402645:	48 8b 48 18          	mov    0x18(%rax),%rcx
  402649:	48 63 50 14          	movslq 0x14(%rax),%rdx
  40264d:	48 8d bc 24 44 a0 00 	lea    0xa044(%rsp),%rdi
  402654:	00 
  402655:	48 8b 31             	mov    (%rcx),%rsi
  402658:	e8 43 eb ff ff       	call   4011a0 <memmove@plt>
  40265d:	0f b7 74 24 10       	movzwl 0x10(%rsp),%esi
  402662:	66 c1 c6 08          	rol    $0x8,%si
  402666:	66 89 b4 24 42 a0 00 	mov    %si,0xa042(%rsp)
  40266d:	00 
  40266e:	ba 10 00 00 00       	mov    $0x10,%edx
  402673:	4c 89 fe             	mov    %r15,%rsi
  402676:	89 df                	mov    %ebx,%edi
  402678:	e8 93 eb ff ff       	call   401210 <connect@plt>
  40267d:	85 c0                	test   %eax,%eax
  40267f:	0f 88 a3 02 00 00    	js     402928 <submitr+0x377>
  402685:	4c 89 ef             	mov    %r13,%rdi
  402688:	e8 13 ea ff ff       	call   4010a0 <strlen@plt>
  40268d:	49 89 c7             	mov    %rax,%r15
  402690:	4c 89 f7             	mov    %r14,%rdi
  402693:	e8 08 ea ff ff       	call   4010a0 <strlen@plt>
  402698:	48 89 44 24 10       	mov    %rax,0x10(%rsp)
  40269d:	48 8b 7c 24 08       	mov    0x8(%rsp),%rdi
  4026a2:	e8 f9 e9 ff ff       	call   4010a0 <strlen@plt>
  4026a7:	48 03 44 24 10       	add    0x10(%rsp),%rax
  4026ac:	48 89 44 24 10       	mov    %rax,0x10(%rsp)
  4026b1:	48 8b 7c 24 18       	mov    0x18(%rsp),%rdi
  4026b6:	e8 e5 e9 ff ff       	call   4010a0 <strlen@plt>
  4026bb:	48 03 44 24 10       	add    0x10(%rsp),%rax
  4026c0:	4b 8d 14 7f          	lea    (%r15,%r15,2),%rdx
  4026c4:	48 8d 84 10 80 00 00 	lea    0x80(%rax,%rdx,1),%rax
  4026cb:	00 
  4026cc:	48 3d 00 20 00 00    	cmp    $0x2000,%rax
  4026d2:	0f 87 aa 02 00 00    	ja     402982 <submitr+0x3d1>
  4026d8:	48 8d b4 24 30 40 00 	lea    0x4030(%rsp),%rsi
  4026df:	00 
  4026e0:	b9 00 04 00 00       	mov    $0x400,%ecx
  4026e5:	b8 00 00 00 00       	mov    $0x0,%eax
  4026ea:	48 89 f7             	mov    %rsi,%rdi
  4026ed:	f3 48 ab             	rep stos %rax,%es:(%rdi)
  4026f0:	4c 89 ef             	mov    %r13,%rdi
  4026f3:	e8 89 fc ff ff       	call   402381 <urlencode>
  4026f8:	85 c0                	test   %eax,%eax
  4026fa:	0f 88 f5 02 00 00    	js     4029f5 <submitr+0x444>
  402700:	4c 8d ac 24 30 60 00 	lea    0x6030(%rsp),%r13
  402707:	00 
  402708:	4d 89 e1             	mov    %r12,%r9
  40270b:	4c 8d 84 24 30 40 00 	lea    0x4030(%rsp),%r8
  402712:	00 
  402713:	4c 89 f1             	mov    %r14,%rcx
  402716:	48 8b 54 24 08       	mov    0x8(%rsp),%rdx
  40271b:	48 8d 35 c6 0f 00 00 	lea    0xfc6(%rip),%rsi        # 4036e8 <trans_char+0x38>
  402722:	4c 89 ef             	mov    %r13,%rdi
  402725:	b8 00 00 00 00       	mov    $0x0,%eax
  40272a:	e8 c1 ea ff ff       	call   4011f0 <sprintf@plt>
  40272f:	4c 89 ef             	mov    %r13,%rdi
  402732:	e8 69 e9 ff ff       	call   4010a0 <strlen@plt>
  402737:	48 89 c2             	mov    %rax,%rdx
  40273a:	4c 89 ee             	mov    %r13,%rsi
  40273d:	89 df                	mov    %ebx,%edi
  40273f:	e8 0a fd ff ff       	call   40244e <rio_writen>
  402744:	48 85 c0             	test   %rax,%rax
  402747:	0f 88 33 03 00 00    	js     402a80 <submitr+0x4cf>
  40274d:	4c 8d a4 24 30 80 00 	lea    0x8030(%rsp),%r12
  402754:	00 
  402755:	89 de                	mov    %ebx,%esi
  402757:	4c 89 e7             	mov    %r12,%rdi
  40275a:	e8 e5 fb ff ff       	call   402344 <rio_readinitb>
  40275f:	48 8d b4 24 30 60 00 	lea    0x6030(%rsp),%rsi
  402766:	00 
  402767:	ba 00 20 00 00       	mov    $0x2000,%edx
  40276c:	4c 89 e7             	mov    %r12,%rdi
  40276f:	e8 c1 fd ff ff       	call   402535 <rio_readlineb>
  402774:	48 85 c0             	test   %rax,%rax
  402777:	0f 8e 72 03 00 00    	jle    402aef <submitr+0x53e>
  40277d:	48 8d 8c 24 2c 20 00 	lea    0x202c(%rsp),%rcx
  402784:	00 
  402785:	48 8d 94 24 30 20 00 	lea    0x2030(%rsp),%rdx
  40278c:	00 
  40278d:	48 8d bc 24 30 60 00 	lea    0x6030(%rsp),%rdi
  402794:	00 
  402795:	4c 8d 44 24 20       	lea    0x20(%rsp),%r8
  40279a:	48 8d 35 bb 0f 00 00 	lea    0xfbb(%rip),%rsi        # 40375c <trans_char+0xac>
  4027a1:	b8 00 00 00 00       	mov    $0x0,%eax
  4027a6:	e8 d5 e9 ff ff       	call   401180 <__isoc99_sscanf@plt>
  4027ab:	48 8d b4 24 30 60 00 	lea    0x6030(%rsp),%rsi
  4027b2:	00 
  4027b3:	b9 03 00 00 00       	mov    $0x3,%ecx
  4027b8:	48 8d 3d b4 0f 00 00 	lea    0xfb4(%rip),%rdi        # 403773 <trans_char+0xc3>
  4027bf:	f3 a6                	repz cmpsb %es:(%rdi),%ds:(%rsi)
  4027c1:	0f 97 c0             	seta   %al
  4027c4:	1c 00                	sbb    $0x0,%al
  4027c6:	84 c0                	test   %al,%al
  4027c8:	0f 84 9f 03 00 00    	je     402b6d <submitr+0x5bc>
  4027ce:	48 8d b4 24 30 60 00 	lea    0x6030(%rsp),%rsi
  4027d5:	00 
  4027d6:	48 8d bc 24 30 80 00 	lea    0x8030(%rsp),%rdi
  4027dd:	00 
  4027de:	ba 00 20 00 00       	mov    $0x2000,%edx
  4027e3:	e8 4d fd ff ff       	call   402535 <rio_readlineb>
  4027e8:	48 85 c0             	test   %rax,%rax
  4027eb:	7f be                	jg     4027ab <submitr+0x1fa>
  4027ed:	48 b8 45 72 72 6f 72 	movabs $0x43203a726f727245,%rax
  4027f4:	3a 20 43 
  4027f7:	48 ba 6c 69 65 6e 74 	movabs $0x6e7520746e65696c,%rdx
  4027fe:	20 75 6e 
  402801:	48 89 45 00          	mov    %rax,0x0(%rbp)
  402805:	48 89 55 08          	mov    %rdx,0x8(%rbp)
  402809:	48 b8 61 62 6c 65 20 	movabs $0x206f7420656c6261,%rax
  402810:	74 6f 20 
  402813:	48 ba 72 65 61 64 20 	movabs $0x6165682064616572,%rdx
  40281a:	68 65 61 
  40281d:	48 89 45 10          	mov    %rax,0x10(%rbp)
  402821:	48 89 55 18          	mov    %rdx,0x18(%rbp)
  402825:	48 b8 64 65 72 73 20 	movabs $0x6f72662073726564,%rax
  40282c:	66 72 6f 
  40282f:	48 ba 6d 20 74 68 65 	movabs $0x657220656874206d,%rdx
  402836:	20 72 65 
  402839:	48 89 45 20          	mov    %rax,0x20(%rbp)
  40283d:	48 89 55 28          	mov    %rdx,0x28(%rbp)
  402841:	48 b8 73 75 6c 74 20 	movabs $0x72657320746c7573,%rax
  402848:	73 65 72 
  40284b:	48 89 45 30          	mov    %rax,0x30(%rbp)
  40284f:	c7 45 38 76 65 72 00 	movl   $0x726576,0x38(%rbp)
  402856:	89 df                	mov    %ebx,%edi
  402858:	e8 93 e8 ff ff       	call   4010f0 <close@plt>
  40285d:	b8 ff ff ff ff       	mov    $0xffffffff,%eax
  402862:	48 81 c4 58 a0 00 00 	add    $0xa058,%rsp
  402869:	5b                   	pop    %rbx
  40286a:	5d                   	pop    %rbp
  40286b:	41 5c                	pop    %r12
  40286d:	41 5d                	pop    %r13
  40286f:	41 5e                	pop    %r14
  402871:	41 5f                	pop    %r15
  402873:	c3                   	ret    
  402874:	48 b8 45 72 72 6f 72 	movabs $0x43203a726f727245,%rax
  40287b:	3a 20 43 
  40287e:	48 ba 6c 69 65 6e 74 	movabs $0x6e7520746e65696c,%rdx
  402885:	20 75 6e 
  402888:	48 89 45 00          	mov    %rax,0x0(%rbp)
  40288c:	48 89 55 08          	mov    %rdx,0x8(%rbp)
  402890:	48 b8 61 62 6c 65 20 	movabs $0x206f7420656c6261,%rax
  402897:	74 6f 20 
  40289a:	48 ba 63 72 65 61 74 	movabs $0x7320657461657263,%rdx
  4028a1:	65 20 73 
  4028a4:	48 89 45 10          	mov    %rax,0x10(%rbp)
  4028a8:	48 89 55 18          	mov    %rdx,0x18(%rbp)
  4028ac:	c7 45 20 6f 63 6b 65 	movl   $0x656b636f,0x20(%rbp)
  4028b3:	66 c7 45 24 74 00    	movw   $0x74,0x24(%rbp)
  4028b9:	b8 ff ff ff ff       	mov    $0xffffffff,%eax
  4028be:	eb a2                	jmp    402862 <submitr+0x2b1>
  4028c0:	48 b8 45 72 72 6f 72 	movabs $0x44203a726f727245,%rax
  4028c7:	3a 20 44 
  4028ca:	48 ba 4e 53 20 69 73 	movabs $0x6e7520736920534e,%rdx
  4028d1:	20 75 6e 
  4028d4:	48 89 45 00          	mov    %rax,0x0(%rbp)
  4028d8:	48 89 55 08          	mov    %rdx,0x8(%rbp)
  4028dc:	48 b8 61 62 6c 65 20 	movabs $0x206f7420656c6261,%rax
  4028e3:	74 6f 20 
  4028e6:	48 ba 72 65 73 6f 6c 	movabs $0x2065766c6f736572,%rdx
  4028ed:	76 65 20 
  4028f0:	48 89 45 10          	mov    %rax,0x10(%rbp)
  4028f4:	48 89 55 18          	mov    %rdx,0x18(%rbp)
  4028f8:	48 b8 73 65 72 76 65 	movabs $0x6120726576726573,%rax
  4028ff:	72 20 61 
  402902:	48 89 45 20          	mov    %rax,0x20(%rbp)
  402906:	c7 45 28 64 64 72 65 	movl   $0x65726464,0x28(%rbp)
  40290d:	66 c7 45 2c 73 73    	movw   $0x7373,0x2c(%rbp)
  402913:	c6 45 2e 00          	movb   $0x0,0x2e(%rbp)
  402917:	89 df                	mov    %ebx,%edi
  402919:	e8 d2 e7 ff ff       	call   4010f0 <close@plt>
  40291e:	b8 ff ff ff ff       	mov    $0xffffffff,%eax
  402923:	e9 3a ff ff ff       	jmp    402862 <submitr+0x2b1>
  402928:	48 b8 45 72 72 6f 72 	movabs $0x55203a726f727245,%rax
  40292f:	3a 20 55 
  402932:	48 ba 6e 61 62 6c 65 	movabs $0x6f7420656c62616e,%rdx
  402939:	20 74 6f 
  40293c:	48 89 45 00          	mov    %rax,0x0(%rbp)
  402940:	48 89 55 08          	mov    %rdx,0x8(%rbp)
  402944:	48 b8 20 63 6f 6e 6e 	movabs $0x7463656e6e6f6320,%rax
  40294b:	65 63 74 
  40294e:	48 ba 20 74 6f 20 74 	movabs $0x20656874206f7420,%rdx
  402955:	68 65 20 
  402958:	48 89 45 10          	mov    %rax,0x10(%rbp)
  40295c:	48 89 55 18          	mov    %rdx,0x18(%rbp)
  402960:	c7 45 20 73 65 72 76 	movl   $0x76726573,0x20(%rbp)
  402967:	66 c7 45 24 65 72    	movw   $0x7265,0x24(%rbp)
  40296d:	c6 45 26 00          	movb   $0x0,0x26(%rbp)
  402971:	89 df                	mov    %ebx,%edi
  402973:	e8 78 e7 ff ff       	call   4010f0 <close@plt>
  402978:	b8 ff ff ff ff       	mov    $0xffffffff,%eax
  40297d:	e9 e0 fe ff ff       	jmp    402862 <submitr+0x2b1>
  402982:	48 b8 45 72 72 6f 72 	movabs $0x52203a726f727245,%rax
  402989:	3a 20 52 
  40298c:	48 ba 65 73 75 6c 74 	movabs $0x747320746c757365,%rdx
  402993:	20 73 74 
  402996:	48 89 45 00          	mov    %rax,0x0(%rbp)
  40299a:	48 89 55 08          	mov    %rdx,0x8(%rbp)
  40299e:	48 b8 72 69 6e 67 20 	movabs $0x6f6f7420676e6972,%rax
  4029a5:	74 6f 6f 
  4029a8:	48 ba 20 6c 61 72 67 	movabs $0x202e656772616c20,%rdx
  4029af:	65 2e 20 
  4029b2:	48 89 45 10          	mov    %rax,0x10(%rbp)
  4029b6:	48 89 55 18          	mov    %rdx,0x18(%rbp)
  4029ba:	48 b8 49 6e 63 72 65 	movabs $0x6573616572636e49,%rax
  4029c1:	61 73 65 
  4029c4:	48 ba 20 53 55 42 4d 	movabs $0x5254494d42555320,%rdx
  4029cb:	49 54 52 
  4029ce:	48 89 45 20          	mov    %rax,0x20(%rbp)
  4029d2:	48 89 55 28          	mov    %rdx,0x28(%rbp)
  4029d6:	48 b8 5f 4d 41 58 42 	movabs $0x46554258414d5f,%rax
  4029dd:	55 46 00 
  4029e0:	48 89 45 30          	mov    %rax,0x30(%rbp)
  4029e4:	89 df                	mov    %ebx,%edi
  4029e6:	e8 05 e7 ff ff       	call   4010f0 <close@plt>
  4029eb:	b8 ff ff ff ff       	mov    $0xffffffff,%eax
  4029f0:	e9 6d fe ff ff       	jmp    402862 <submitr+0x2b1>
  4029f5:	48 b8 45 72 72 6f 72 	movabs $0x52203a726f727245,%rax
  4029fc:	3a 20 52 
  4029ff:	48 ba 65 73 75 6c 74 	movabs $0x747320746c757365,%rdx
  402a06:	20 73 74 
  402a09:	48 89 45 00          	mov    %rax,0x0(%rbp)
  402a0d:	48 89 55 08          	mov    %rdx,0x8(%rbp)
  402a11:	48 b8 72 69 6e 67 20 	movabs $0x6e6f6320676e6972,%rax
  402a18:	63 6f 6e 
  402a1b:	48 ba 74 61 69 6e 73 	movabs $0x6e6120736e696174,%rdx
  402a22:	20 61 6e 
  402a25:	48 89 45 10          	mov    %rax,0x10(%rbp)
  402a29:	48 89 55 18          	mov    %rdx,0x18(%rbp)
  402a2d:	48 b8 20 69 6c 6c 65 	movabs $0x6c6167656c6c6920,%rax
  402a34:	67 61 6c 
  402a37:	48 ba 20 6f 72 20 75 	movabs $0x72706e7520726f20,%rdx
  402a3e:	6e 70 72 
  402a41:	48 89 45 20          	mov    %rax,0x20(%rbp)
  402a45:	48 89 55 28          	mov    %rdx,0x28(%rbp)
  402a49:	48 b8 69 6e 74 61 62 	movabs $0x20656c6261746e69,%rax
  402a50:	6c 65 20 
  402a53:	48 ba 63 68 61 72 61 	movabs $0x6574636172616863,%rdx
  402a5a:	63 74 65 
  402a5d:	48 89 45 30          	mov    %rax,0x30(%rbp)
  402a61:	48 89 55 38          	mov    %rdx,0x38(%rbp)
  402a65:	66 c7 45 40 72 2e    	movw   $0x2e72,0x40(%rbp)
  402a6b:	c6 45 42 00          	movb   $0x0,0x42(%rbp)
  402a6f:	89 df                	mov    %ebx,%edi
  402a71:	e8 7a e6 ff ff       	call   4010f0 <close@plt>
  402a76:	b8 ff ff ff ff       	mov    $0xffffffff,%eax
  402a7b:	e9 e2 fd ff ff       	jmp    402862 <submitr+0x2b1>
  402a80:	48 b8 45 72 72 6f 72 	movabs $0x43203a726f727245,%rax
  402a87:	3a 20 43 
  402a8a:	48 ba 6c 69 65 6e 74 	movabs $0x6e7520746e65696c,%rdx
  402a91:	20 75 6e 
  402a94:	48 89 45 00          	mov    %rax,0x0(%rbp)
  402a98:	48 89 55 08          	mov    %rdx,0x8(%rbp)
  402a9c:	48 b8 61 62 6c 65 20 	movabs $0x206f7420656c6261,%rax
  402aa3:	74 6f 20 
  402aa6:	48 ba 77 72 69 74 65 	movabs $0x6f74206574697277,%rdx
  402aad:	20 74 6f 
  402ab0:	48 89 45 10          	mov    %rax,0x10(%rbp)
  402ab4:	48 89 55 18          	mov    %rdx,0x18(%rbp)
  402ab8:	48 b8 20 74 68 65 20 	movabs $0x7365722065687420,%rax
  402abf:	72 65 73 
  402ac2:	48 ba 75 6c 74 20 73 	movabs $0x7672657320746c75,%rdx
  402ac9:	65 72 76 
  402acc:	48 89 45 20          	mov    %rax,0x20(%rbp)
  402ad0:	48 89 55 28          	mov    %rdx,0x28(%rbp)
  402ad4:	66 c7 45 30 65 72    	movw   $0x7265,0x30(%rbp)
  402ada:	c6 45 32 00          	movb   $0x0,0x32(%rbp)
  402ade:	89 df                	mov    %ebx,%edi
  402ae0:	e8 0b e6 ff ff       	call   4010f0 <close@plt>
  402ae5:	b8 ff ff ff ff       	mov    $0xffffffff,%eax
  402aea:	e9 73 fd ff ff       	jmp    402862 <submitr+0x2b1>
  402aef:	48 b8 45 72 72 6f 72 	movabs $0x43203a726f727245,%rax
  402af6:	3a 20 43 
  402af9:	48 ba 6c 69 65 6e 74 	movabs $0x6e7520746e65696c,%rdx
  402b00:	20 75 6e 
  402b03:	48 89 45 00          	mov    %rax,0x0(%rbp)
  402b07:	48 89 55 08          	mov    %rdx,0x8(%rbp)
  402b0b:	48 b8 61 62 6c 65 20 	movabs $0x206f7420656c6261,%rax
  402b12:	74 6f 20 
  402b15:	48 ba 72 65 61 64 20 	movabs $0x7269662064616572,%rdx
  402b1c:	66 69 72 
  402b1f:	48 89 45 10          	mov    %rax,0x10(%rbp)
  402b23:	48 89 55 18          	mov    %rdx,0x18(%rbp)
  402b27:	48 b8 73 74 20 68 65 	movabs $0x6564616568207473,%rax
  402b2e:	61 64 65 
  402b31:	48 ba 72 20 66 72 6f 	movabs $0x72206d6f72662072,%rdx
  402b38:	6d 20 72 
  402b3b:	48 89 45 20          	mov    %rax,0x20(%rbp)
  402b3f:	48 89 55 28          	mov    %rdx,0x28(%rbp)
  402b43:	48 b8 65 73 75 6c 74 	movabs $0x657320746c757365,%rax
  402b4a:	20 73 65 
  402b4d:	48 89 45 30          	mov    %rax,0x30(%rbp)
  402b51:	c7 45 38 72 76 65 72 	movl   $0x72657672,0x38(%rbp)
  402b58:	c6 45 3c 00          	movb   $0x0,0x3c(%rbp)
  402b5c:	89 df                	mov    %ebx,%edi
  402b5e:	e8 8d e5 ff ff       	call   4010f0 <close@plt>
  402b63:	b8 ff ff ff ff       	mov    $0xffffffff,%eax
  402b68:	e9 f5 fc ff ff       	jmp    402862 <submitr+0x2b1>
  402b6d:	48 8d b4 24 30 60 00 	lea    0x6030(%rsp),%rsi
  402b74:	00 
  402b75:	48 8d bc 24 30 80 00 	lea    0x8030(%rsp),%rdi
  402b7c:	00 
  402b7d:	ba 00 20 00 00       	mov    $0x2000,%edx
  402b82:	e8 ae f9 ff ff       	call   402535 <rio_readlineb>
  402b87:	48 85 c0             	test   %rax,%rax
  402b8a:	0f 8e 97 00 00 00    	jle    402c27 <submitr+0x676>
  402b90:	8b 94 24 2c 20 00 00 	mov    0x202c(%rsp),%edx
  402b97:	81 fa c8 00 00 00    	cmp    $0xc8,%edx
  402b9d:	0f 85 08 01 00 00    	jne    402cab <submitr+0x6fa>
  402ba3:	48 8d b4 24 30 60 00 	lea    0x6030(%rsp),%rsi
  402baa:	00 
  402bab:	48 89 ef             	mov    %rbp,%rdi
  402bae:	e8 bd e4 ff ff       	call   401070 <strcpy@plt>
  402bb3:	89 df                	mov    %ebx,%edi
  402bb5:	e8 36 e5 ff ff       	call   4010f0 <close@plt>
  402bba:	b9 04 00 00 00       	mov    $0x4,%ecx
  402bbf:	48 8d 3d a7 0b 00 00 	lea    0xba7(%rip),%rdi        # 40376d <trans_char+0xbd>
  402bc6:	48 89 ee             	mov    %rbp,%rsi
  402bc9:	f3 a6                	repz cmpsb %es:(%rdi),%ds:(%rsi)
  402bcb:	0f 97 c0             	seta   %al
  402bce:	1c 00                	sbb    $0x0,%al
  402bd0:	0f be c0             	movsbl %al,%eax
  402bd3:	85 c0                	test   %eax,%eax
  402bd5:	0f 84 87 fc ff ff    	je     402862 <submitr+0x2b1>
  402bdb:	b9 05 00 00 00       	mov    $0x5,%ecx
  402be0:	48 8d 3d 8a 0b 00 00 	lea    0xb8a(%rip),%rdi        # 403771 <trans_char+0xc1>
  402be7:	48 89 ee             	mov    %rbp,%rsi
  402bea:	f3 a6                	repz cmpsb %es:(%rdi),%ds:(%rsi)
  402bec:	0f 97 c0             	seta   %al
  402bef:	1c 00                	sbb    $0x0,%al
  402bf1:	0f be c0             	movsbl %al,%eax
  402bf4:	85 c0                	test   %eax,%eax
  402bf6:	0f 84 66 fc ff ff    	je     402862 <submitr+0x2b1>
  402bfc:	b9 03 00 00 00       	mov    $0x3,%ecx
  402c01:	48 8d 3d 6e 0b 00 00 	lea    0xb6e(%rip),%rdi        # 403776 <trans_char+0xc6>
  402c08:	48 89 ee             	mov    %rbp,%rsi
  402c0b:	f3 a6                	repz cmpsb %es:(%rdi),%ds:(%rsi)
  402c0d:	0f 97 c0             	seta   %al
  402c10:	1c 00                	sbb    $0x0,%al
  402c12:	0f be c0             	movsbl %al,%eax
  402c15:	85 c0                	test   %eax,%eax
  402c17:	0f 84 45 fc ff ff    	je     402862 <submitr+0x2b1>
  402c1d:	b8 ff ff ff ff       	mov    $0xffffffff,%eax
  402c22:	e9 3b fc ff ff       	jmp    402862 <submitr+0x2b1>
  402c27:	48 b8 45 72 72 6f 72 	movabs $0x43203a726f727245,%rax
  402c2e:	3a 20 43 
  402c31:	48 ba 6c 69 65 6e 74 	movabs $0x6e7520746e65696c,%rdx
  402c38:	20 75 6e 
  402c3b:	48 89 45 00          	mov    %rax,0x0(%rbp)
  402c3f:	48 89 55 08          	mov    %rdx,0x8(%rbp)
  402c43:	48 b8 61 62 6c 65 20 	movabs $0x206f7420656c6261,%rax
  402c4a:	74 6f 20 
  402c4d:	48 ba 72 65 61 64 20 	movabs $0x6174732064616572,%rdx
  402c54:	73 74 61 
  402c57:	48 89 45 10          	mov    %rax,0x10(%rbp)
  402c5b:	48 89 55 18          	mov    %rdx,0x18(%rbp)
  402c5f:	48 b8 74 75 73 20 6d 	movabs $0x7373656d20737574,%rax
  402c66:	65 73 73 
  402c69:	48 ba 61 67 65 20 66 	movabs $0x6d6f726620656761,%rdx
  402c70:	72 6f 6d 
  402c73:	48 89 45 20          	mov    %rax,0x20(%rbp)
  402c77:	48 89 55 28          	mov    %rdx,0x28(%rbp)
  402c7b:	48 b8 20 72 65 73 75 	movabs $0x20746c7573657220,%rax
  402c82:	6c 74 20 
  402c85:	48 89 45 30          	mov    %rax,0x30(%rbp)
  402c89:	c7 45 38 73 65 72 76 	movl   $0x76726573,0x38(%rbp)
  402c90:	66 c7 45 3c 65 72    	movw   $0x7265,0x3c(%rbp)
  402c96:	c6 45 3e 00          	movb   $0x0,0x3e(%rbp)
  402c9a:	89 df                	mov    %ebx,%edi
  402c9c:	e8 4f e4 ff ff       	call   4010f0 <close@plt>
  402ca1:	b8 ff ff ff ff       	mov    $0xffffffff,%eax
  402ca6:	e9 b7 fb ff ff       	jmp    402862 <submitr+0x2b1>
  402cab:	48 8d 4c 24 20       	lea    0x20(%rsp),%rcx
  402cb0:	48 8d 35 71 0a 00 00 	lea    0xa71(%rip),%rsi        # 403728 <trans_char+0x78>
  402cb7:	48 89 ef             	mov    %rbp,%rdi
  402cba:	b8 00 00 00 00       	mov    $0x0,%eax
  402cbf:	e8 2c e5 ff ff       	call   4011f0 <sprintf@plt>
  402cc4:	89 df                	mov    %ebx,%edi
  402cc6:	e8 25 e4 ff ff       	call   4010f0 <close@plt>
  402ccb:	b8 ff ff ff ff       	mov    $0xffffffff,%eax
  402cd0:	e9 8d fb ff ff       	jmp    402862 <submitr+0x2b1>

0000000000402cd5 <init_timeout>:
  402cd5:	85 ff                	test   %edi,%edi
  402cd7:	74 26                	je     402cff <init_timeout+0x2a>
  402cd9:	53                   	push   %rbx
  402cda:	89 fb                	mov    %edi,%ebx
  402cdc:	78 1a                	js     402cf8 <init_timeout+0x23>
  402cde:	48 8d 35 71 f6 ff ff 	lea    -0x98f(%rip),%rsi        # 402356 <sigalrm_handler>
  402ce5:	bf 0e 00 00 00       	mov    $0xe,%edi
  402cea:	e8 21 e4 ff ff       	call   401110 <signal@plt>
  402cef:	89 df                	mov    %ebx,%edi
  402cf1:	e8 ea e3 ff ff       	call   4010e0 <alarm@plt>
  402cf6:	5b                   	pop    %rbx
  402cf7:	c3                   	ret    
  402cf8:	bb 00 00 00 00       	mov    $0x0,%ebx
  402cfd:	eb df                	jmp    402cde <init_timeout+0x9>
  402cff:	c3                   	ret    

0000000000402d00 <init_driver>:
  402d00:	41 54                	push   %r12
  402d02:	55                   	push   %rbp
  402d03:	53                   	push   %rbx
  402d04:	48 83 ec 10          	sub    $0x10,%rsp
  402d08:	48 89 fd             	mov    %rdi,%rbp
  402d0b:	be 01 00 00 00       	mov    $0x1,%esi
  402d10:	bf 0d 00 00 00       	mov    $0xd,%edi
  402d15:	e8 f6 e3 ff ff       	call   401110 <signal@plt>
  402d1a:	be 01 00 00 00       	mov    $0x1,%esi
  402d1f:	bf 1d 00 00 00       	mov    $0x1d,%edi
  402d24:	e8 e7 e3 ff ff       	call   401110 <signal@plt>
  402d29:	be 01 00 00 00       	mov    $0x1,%esi
  402d2e:	bf 1d 00 00 00       	mov    $0x1d,%edi
  402d33:	e8 d8 e3 ff ff       	call   401110 <signal@plt>
  402d38:	ba 00 00 00 00       	mov    $0x0,%edx
  402d3d:	be 01 00 00 00       	mov    $0x1,%esi
  402d42:	bf 02 00 00 00       	mov    $0x2,%edi
  402d47:	e8 e4 e4 ff ff       	call   401230 <socket@plt>
  402d4c:	85 c0                	test   %eax,%eax
  402d4e:	0f 88 83 00 00 00    	js     402dd7 <init_driver+0xd7>
  402d54:	89 c3                	mov    %eax,%ebx
  402d56:	48 8d 3d 1c 0a 00 00 	lea    0xa1c(%rip),%rdi        # 403779 <trans_char+0xc9>
  402d5d:	e8 be e3 ff ff       	call   401120 <gethostbyname@plt>
  402d62:	48 85 c0             	test   %rax,%rax
  402d65:	0f 84 b8 00 00 00    	je     402e23 <init_driver+0x123>
  402d6b:	49 89 e4             	mov    %rsp,%r12
  402d6e:	48 c7 04 24 00 00 00 	movq   $0x0,(%rsp)
  402d75:	00 
  402d76:	48 c7 44 24 08 00 00 	movq   $0x0,0x8(%rsp)
  402d7d:	00 00 
  402d7f:	66 c7 04 24 02 00    	movw   $0x2,(%rsp)
  402d85:	48 8b 48 18          	mov    0x18(%rax),%rcx
  402d89:	48 63 50 14          	movslq 0x14(%rax),%rdx
  402d8d:	48 8d 7c 24 04       	lea    0x4(%rsp),%rdi
  402d92:	48 8b 31             	mov    (%rcx),%rsi
  402d95:	e8 06 e4 ff ff       	call   4011a0 <memmove@plt>
  402d9a:	66 c7 44 24 02 3c a4 	movw   $0xa43c,0x2(%rsp)
  402da1:	ba 10 00 00 00       	mov    $0x10,%edx
  402da6:	4c 89 e6             	mov    %r12,%rsi
  402da9:	89 df                	mov    %ebx,%edi
  402dab:	e8 60 e4 ff ff       	call   401210 <connect@plt>
  402db0:	85 c0                	test   %eax,%eax
  402db2:	0f 88 d3 00 00 00    	js     402e8b <init_driver+0x18b>
  402db8:	89 df                	mov    %ebx,%edi
  402dba:	e8 31 e3 ff ff       	call   4010f0 <close@plt>
  402dbf:	66 c7 45 00 4f 4b    	movw   $0x4b4f,0x0(%rbp)
  402dc5:	c6 45 02 00          	movb   $0x0,0x2(%rbp)
  402dc9:	b8 00 00 00 00       	mov    $0x0,%eax
  402dce:	48 83 c4 10          	add    $0x10,%rsp
  402dd2:	5b                   	pop    %rbx
  402dd3:	5d                   	pop    %rbp
  402dd4:	41 5c                	pop    %r12
  402dd6:	c3                   	ret    
  402dd7:	48 b8 45 72 72 6f 72 	movabs $0x43203a726f727245,%rax
  402dde:	3a 20 43 
  402de1:	48 ba 6c 69 65 6e 74 	movabs $0x6e7520746e65696c,%rdx
  402de8:	20 75 6e 
  402deb:	48 89 45 00          	mov    %rax,0x0(%rbp)
  402def:	48 89 55 08          	mov    %rdx,0x8(%rbp)
  402df3:	48 b8 61 62 6c 65 20 	movabs $0x206f7420656c6261,%rax
  402dfa:	74 6f 20 
  402dfd:	48 ba 63 72 65 61 74 	movabs $0x7320657461657263,%rdx
  402e04:	65 20 73 
  402e07:	48 89 45 10          	mov    %rax,0x10(%rbp)
  402e0b:	48 89 55 18          	mov    %rdx,0x18(%rbp)
  402e0f:	c7 45 20 6f 63 6b 65 	movl   $0x656b636f,0x20(%rbp)
  402e16:	66 c7 45 24 74 00    	movw   $0x74,0x24(%rbp)
  402e1c:	b8 ff ff ff ff       	mov    $0xffffffff,%eax
  402e21:	eb ab                	jmp    402dce <init_driver+0xce>
  402e23:	48 b8 45 72 72 6f 72 	movabs $0x44203a726f727245,%rax
  402e2a:	3a 20 44 
  402e2d:	48 ba 4e 53 20 69 73 	movabs $0x6e7520736920534e,%rdx
  402e34:	20 75 6e 
  402e37:	48 89 45 00          	mov    %rax,0x0(%rbp)
  402e3b:	48 89 55 08          	mov    %rdx,0x8(%rbp)
  402e3f:	48 b8 61 62 6c 65 20 	movabs $0x206f7420656c6261,%rax
  402e46:	74 6f 20 
  402e49:	48 ba 72 65 73 6f 6c 	movabs $0x2065766c6f736572,%rdx
  402e50:	76 65 20 
  402e53:	48 89 45 10          	mov    %rax,0x10(%rbp)
  402e57:	48 89 55 18          	mov    %rdx,0x18(%rbp)
  402e5b:	48 b8 73 65 72 76 65 	movabs $0x6120726576726573,%rax
  402e62:	72 20 61 
  402e65:	48 89 45 20          	mov    %rax,0x20(%rbp)
  402e69:	c7 45 28 64 64 72 65 	movl   $0x65726464,0x28(%rbp)
  402e70:	66 c7 45 2c 73 73    	movw   $0x7373,0x2c(%rbp)
  402e76:	c6 45 2e 00          	movb   $0x0,0x2e(%rbp)
  402e7a:	89 df                	mov    %ebx,%edi
  402e7c:	e8 6f e2 ff ff       	call   4010f0 <close@plt>
  402e81:	b8 ff ff ff ff       	mov    $0xffffffff,%eax
  402e86:	e9 43 ff ff ff       	jmp    402dce <init_driver+0xce>
  402e8b:	48 b8 32 30 32 2e 31 	movabs $0x2e3032312e323032,%rax
  402e92:	32 30 2e 
  402e95:	48 89 45 00          	mov    %rax,0x0(%rbp)
  402e99:	c7 45 08 34 30 2e 38 	movl   $0x382e3034,0x8(%rbp)
  402ea0:	66 c7 45 0c 35 00    	movw   $0x35,0xc(%rbp)
  402ea6:	48 b8 45 72 72 6f 72 	movabs $0x55203a726f727245,%rax
  402ead:	3a 20 55 
  402eb0:	48 ba 6e 61 62 6c 65 	movabs $0x6f7420656c62616e,%rdx
  402eb7:	20 74 6f 
  402eba:	48 89 45 00          	mov    %rax,0x0(%rbp)
  402ebe:	48 89 55 08          	mov    %rdx,0x8(%rbp)
  402ec2:	48 b8 20 63 6f 6e 6e 	movabs $0x7463656e6e6f6320,%rax
  402ec9:	65 63 74 
  402ecc:	48 ba 20 74 6f 20 73 	movabs $0x76726573206f7420,%rdx
  402ed3:	65 72 76 
  402ed6:	48 89 45 10          	mov    %rax,0x10(%rbp)
  402eda:	48 89 55 18          	mov    %rdx,0x18(%rbp)
  402ede:	66 c7 45 20 65 72    	movw   $0x7265,0x20(%rbp)
  402ee4:	c6 45 22 00          	movb   $0x0,0x22(%rbp)
  402ee8:	89 df                	mov    %ebx,%edi
  402eea:	e8 01 e2 ff ff       	call   4010f0 <close@plt>
  402eef:	b8 ff ff ff ff       	mov    $0xffffffff,%eax
  402ef4:	e9 d5 fe ff ff       	jmp    402dce <init_driver+0xce>

0000000000402ef9 <driver_post>:
  402ef9:	53                   	push   %rbx
  402efa:	4c 89 cb             	mov    %r9,%rbx
  402efd:	45 85 c0             	test   %r8d,%r8d
  402f00:	75 18                	jne    402f1a <driver_post+0x21>
  402f02:	48 85 ff             	test   %rdi,%rdi
  402f05:	74 05                	je     402f0c <driver_post+0x13>
  402f07:	80 3f 00             	cmpb   $0x0,(%rdi)
  402f0a:	75 32                	jne    402f3e <driver_post+0x45>
  402f0c:	66 c7 03 4f 4b       	movw   $0x4b4f,(%rbx)
  402f11:	c6 43 02 00          	movb   $0x0,0x2(%rbx)
  402f15:	44 89 c0             	mov    %r8d,%eax
  402f18:	5b                   	pop    %rbx
  402f19:	c3                   	ret    
  402f1a:	48 89 ce             	mov    %rcx,%rsi
  402f1d:	48 8d 3d 63 08 00 00 	lea    0x863(%rip),%rdi        # 403787 <trans_char+0xd7>
  402f24:	b8 00 00 00 00       	mov    $0x0,%eax
  402f29:	e8 92 e1 ff ff       	call   4010c0 <printf@plt>
  402f2e:	66 c7 03 4f 4b       	movw   $0x4b4f,(%rbx)
  402f33:	c6 43 02 00          	movb   $0x0,0x2(%rbx)
  402f37:	b8 00 00 00 00       	mov    $0x0,%eax
  402f3c:	eb da                	jmp    402f18 <driver_post+0x1f>
  402f3e:	48 83 ec 08          	sub    $0x8,%rsp
  402f42:	41 51                	push   %r9
  402f44:	49 89 c9             	mov    %rcx,%r9
  402f47:	49 89 d0             	mov    %rdx,%r8
  402f4a:	48 89 f9             	mov    %rdi,%rcx
  402f4d:	48 89 f2             	mov    %rsi,%rdx
  402f50:	be a4 3c 00 00       	mov    $0x3ca4,%esi
  402f55:	48 8d 3d 1d 08 00 00 	lea    0x81d(%rip),%rdi        # 403779 <trans_char+0xc9>
  402f5c:	e8 50 f6 ff ff       	call   4025b1 <submitr>
  402f61:	48 83 c4 10          	add    $0x10,%rsp
  402f65:	eb b1                	jmp    402f18 <driver_post+0x1f>

0000000000402f67 <check>:
  402f67:	89 f8                	mov    %edi,%eax
  402f69:	c1 e8 1c             	shr    $0x1c,%eax
  402f6c:	74 1d                	je     402f8b <check+0x24>
  402f6e:	b9 00 00 00 00       	mov    $0x0,%ecx
  402f73:	83 f9 1f             	cmp    $0x1f,%ecx
  402f76:	7f 0d                	jg     402f85 <check+0x1e>
  402f78:	89 f8                	mov    %edi,%eax
  402f7a:	d3 e8                	shr    %cl,%eax
  402f7c:	3c 0a                	cmp    $0xa,%al
  402f7e:	74 11                	je     402f91 <check+0x2a>
  402f80:	83 c1 08             	add    $0x8,%ecx
  402f83:	eb ee                	jmp    402f73 <check+0xc>
  402f85:	b8 01 00 00 00       	mov    $0x1,%eax
  402f8a:	c3                   	ret    
  402f8b:	b8 00 00 00 00       	mov    $0x0,%eax
  402f90:	c3                   	ret    
  402f91:	b8 00 00 00 00       	mov    $0x0,%eax
  402f96:	c3                   	ret    

0000000000402f97 <gencookie>:
  402f97:	53                   	push   %rbx
  402f98:	83 c7 01             	add    $0x1,%edi
  402f9b:	e8 b0 e0 ff ff       	call   401050 <srandom@plt>
  402fa0:	e8 cb e1 ff ff       	call   401170 <random@plt>
  402fa5:	48 89 c7             	mov    %rax,%rdi
  402fa8:	89 c3                	mov    %eax,%ebx
  402faa:	e8 b8 ff ff ff       	call   402f67 <check>
  402faf:	85 c0                	test   %eax,%eax
  402fb1:	74 ed                	je     402fa0 <gencookie+0x9>
  402fb3:	89 d8                	mov    %ebx,%eax
  402fb5:	5b                   	pop    %rbx
  402fb6:	c3                   	ret    

Disassembly of section .fini:

0000000000402fb8 <_fini>:
  402fb8:	48 83 ec 08          	sub    $0x8,%rsp
  402fbc:	48 83 c4 08          	add    $0x8,%rsp
  402fc0:	c3                   	ret    
