
ctarget:     file format elf64-x86-64


Disassembly of section .init:

0000000000401000 <_init>:
  401000:	48 83 ec 08          	sub    $0x8,%rsp
  401004:	48 8b 05 d5 3f 00 00 	mov    0x3fd5(%rip),%rax        # 404fe0 <__gmon_start__@Base>
  40100b:	48 85 c0             	test   %rax,%rax
  40100e:	74 02                	je     401012 <_init+0x12>
  401010:	ff d0                	call   *%rax
  401012:	48 83 c4 08          	add    $0x8,%rsp
  401016:	c3                   	ret    

Disassembly of section .plt:

0000000000401020 <strcasecmp@plt-0x10>:
  401020:	ff 35 ca 3f 00 00    	push   0x3fca(%rip)        # 404ff0 <_GLOBAL_OFFSET_TABLE_+0x8>
  401026:	ff 25 cc 3f 00 00    	jmp    *0x3fcc(%rip)        # 404ff8 <_GLOBAL_OFFSET_TABLE_+0x10>
  40102c:	0f 1f 40 00          	nopl   0x0(%rax)

0000000000401030 <strcasecmp@plt>:
  401030:	ff 25 ca 3f 00 00    	jmp    *0x3fca(%rip)        # 405000 <strcasecmp@GLIBC_2.2.5>
  401036:	68 00 00 00 00       	push   $0x0
  40103b:	e9 e0 ff ff ff       	jmp    401020 <_init+0x20>

0000000000401040 <__errno_location@plt>:
  401040:	ff 25 c2 3f 00 00    	jmp    *0x3fc2(%rip)        # 405008 <__errno_location@GLIBC_2.2.5>
  401046:	68 01 00 00 00       	push   $0x1
  40104b:	e9 d0 ff ff ff       	jmp    401020 <_init+0x20>

0000000000401050 <srandom@plt>:
  401050:	ff 25 ba 3f 00 00    	jmp    *0x3fba(%rip)        # 405010 <srandom@GLIBC_2.2.5>
  401056:	68 02 00 00 00       	push   $0x2
  40105b:	e9 c0 ff ff ff       	jmp    401020 <_init+0x20>

0000000000401060 <strncmp@plt>:
  401060:	ff 25 b2 3f 00 00    	jmp    *0x3fb2(%rip)        # 405018 <strncmp@GLIBC_2.2.5>
  401066:	68 03 00 00 00       	push   $0x3
  40106b:	e9 b0 ff ff ff       	jmp    401020 <_init+0x20>

0000000000401070 <strcpy@plt>:
  401070:	ff 25 aa 3f 00 00    	jmp    *0x3faa(%rip)        # 405020 <strcpy@GLIBC_2.2.5>
  401076:	68 04 00 00 00       	push   $0x4
  40107b:	e9 a0 ff ff ff       	jmp    401020 <_init+0x20>

0000000000401080 <puts@plt>:
  401080:	ff 25 a2 3f 00 00    	jmp    *0x3fa2(%rip)        # 405028 <puts@GLIBC_2.2.5>
  401086:	68 05 00 00 00       	push   $0x5
  40108b:	e9 90 ff ff ff       	jmp    401020 <_init+0x20>

0000000000401090 <write@plt>:
  401090:	ff 25 9a 3f 00 00    	jmp    *0x3f9a(%rip)        # 405030 <write@GLIBC_2.2.5>
  401096:	68 06 00 00 00       	push   $0x6
  40109b:	e9 80 ff ff ff       	jmp    401020 <_init+0x20>

00000000004010a0 <strlen@plt>:
  4010a0:	ff 25 92 3f 00 00    	jmp    *0x3f92(%rip)        # 405038 <strlen@GLIBC_2.2.5>
  4010a6:	68 07 00 00 00       	push   $0x7
  4010ab:	e9 70 ff ff ff       	jmp    401020 <_init+0x20>

00000000004010b0 <mmap@plt>:
  4010b0:	ff 25 8a 3f 00 00    	jmp    *0x3f8a(%rip)        # 405040 <mmap@GLIBC_2.2.5>
  4010b6:	68 08 00 00 00       	push   $0x8
  4010bb:	e9 60 ff ff ff       	jmp    401020 <_init+0x20>

00000000004010c0 <printf@plt>:
  4010c0:	ff 25 82 3f 00 00    	jmp    *0x3f82(%rip)        # 405048 <printf@GLIBC_2.2.5>
  4010c6:	68 09 00 00 00       	push   $0x9
  4010cb:	e9 50 ff ff ff       	jmp    401020 <_init+0x20>

00000000004010d0 <memset@plt>:
  4010d0:	ff 25 7a 3f 00 00    	jmp    *0x3f7a(%rip)        # 405050 <memset@GLIBC_2.2.5>
  4010d6:	68 0a 00 00 00       	push   $0xa
  4010db:	e9 40 ff ff ff       	jmp    401020 <_init+0x20>

00000000004010e0 <alarm@plt>:
  4010e0:	ff 25 72 3f 00 00    	jmp    *0x3f72(%rip)        # 405058 <alarm@GLIBC_2.2.5>
  4010e6:	68 0b 00 00 00       	push   $0xb
  4010eb:	e9 30 ff ff ff       	jmp    401020 <_init+0x20>

00000000004010f0 <close@plt>:
  4010f0:	ff 25 6a 3f 00 00    	jmp    *0x3f6a(%rip)        # 405060 <close@GLIBC_2.2.5>
  4010f6:	68 0c 00 00 00       	push   $0xc
  4010fb:	e9 20 ff ff ff       	jmp    401020 <_init+0x20>

0000000000401100 <read@plt>:
  401100:	ff 25 62 3f 00 00    	jmp    *0x3f62(%rip)        # 405068 <read@GLIBC_2.2.5>
  401106:	68 0d 00 00 00       	push   $0xd
  40110b:	e9 10 ff ff ff       	jmp    401020 <_init+0x20>

0000000000401110 <signal@plt>:
  401110:	ff 25 5a 3f 00 00    	jmp    *0x3f5a(%rip)        # 405070 <signal@GLIBC_2.2.5>
  401116:	68 0e 00 00 00       	push   $0xe
  40111b:	e9 00 ff ff ff       	jmp    401020 <_init+0x20>

0000000000401120 <gethostbyname@plt>:
  401120:	ff 25 52 3f 00 00    	jmp    *0x3f52(%rip)        # 405078 <gethostbyname@GLIBC_2.2.5>
  401126:	68 0f 00 00 00       	push   $0xf
  40112b:	e9 f0 fe ff ff       	jmp    401020 <_init+0x20>

0000000000401130 <fprintf@plt>:
  401130:	ff 25 4a 3f 00 00    	jmp    *0x3f4a(%rip)        # 405080 <fprintf@GLIBC_2.2.5>
  401136:	68 10 00 00 00       	push   $0x10
  40113b:	e9 e0 fe ff ff       	jmp    401020 <_init+0x20>

0000000000401140 <strtol@plt>:
  401140:	ff 25 42 3f 00 00    	jmp    *0x3f42(%rip)        # 405088 <strtol@GLIBC_2.2.5>
  401146:	68 11 00 00 00       	push   $0x11
  40114b:	e9 d0 fe ff ff       	jmp    401020 <_init+0x20>

0000000000401150 <memcpy@plt>:
  401150:	ff 25 3a 3f 00 00    	jmp    *0x3f3a(%rip)        # 405090 <memcpy@GLIBC_2.14>
  401156:	68 12 00 00 00       	push   $0x12
  40115b:	e9 c0 fe ff ff       	jmp    401020 <_init+0x20>

0000000000401160 <time@plt>:
  401160:	ff 25 32 3f 00 00    	jmp    *0x3f32(%rip)        # 405098 <time@GLIBC_2.2.5>
  401166:	68 13 00 00 00       	push   $0x13
  40116b:	e9 b0 fe ff ff       	jmp    401020 <_init+0x20>

0000000000401170 <random@plt>:
  401170:	ff 25 2a 3f 00 00    	jmp    *0x3f2a(%rip)        # 4050a0 <random@GLIBC_2.2.5>
  401176:	68 14 00 00 00       	push   $0x14
  40117b:	e9 a0 fe ff ff       	jmp    401020 <_init+0x20>

0000000000401180 <__isoc99_sscanf@plt>:
  401180:	ff 25 22 3f 00 00    	jmp    *0x3f22(%rip)        # 4050a8 <__isoc99_sscanf@GLIBC_2.7>
  401186:	68 15 00 00 00       	push   $0x15
  40118b:	e9 90 fe ff ff       	jmp    401020 <_init+0x20>

0000000000401190 <munmap@plt>:
  401190:	ff 25 1a 3f 00 00    	jmp    *0x3f1a(%rip)        # 4050b0 <munmap@GLIBC_2.2.5>
  401196:	68 16 00 00 00       	push   $0x16
  40119b:	e9 80 fe ff ff       	jmp    401020 <_init+0x20>

00000000004011a0 <memmove@plt>:
  4011a0:	ff 25 12 3f 00 00    	jmp    *0x3f12(%rip)        # 4050b8 <memmove@GLIBC_2.2.5>
  4011a6:	68 17 00 00 00       	push   $0x17
  4011ab:	e9 70 fe ff ff       	jmp    401020 <_init+0x20>

00000000004011b0 <fopen@plt>:
  4011b0:	ff 25 0a 3f 00 00    	jmp    *0x3f0a(%rip)        # 4050c0 <fopen@GLIBC_2.2.5>
  4011b6:	68 18 00 00 00       	push   $0x18
  4011bb:	e9 60 fe ff ff       	jmp    401020 <_init+0x20>

00000000004011c0 <getopt@plt>:
  4011c0:	ff 25 02 3f 00 00    	jmp    *0x3f02(%rip)        # 4050c8 <getopt@GLIBC_2.2.5>
  4011c6:	68 19 00 00 00       	push   $0x19
  4011cb:	e9 50 fe ff ff       	jmp    401020 <_init+0x20>

00000000004011d0 <strtoul@plt>:
  4011d0:	ff 25 fa 3e 00 00    	jmp    *0x3efa(%rip)        # 4050d0 <strtoul@GLIBC_2.2.5>
  4011d6:	68 1a 00 00 00       	push   $0x1a
  4011db:	e9 40 fe ff ff       	jmp    401020 <_init+0x20>

00000000004011e0 <gethostname@plt>:
  4011e0:	ff 25 f2 3e 00 00    	jmp    *0x3ef2(%rip)        # 4050d8 <gethostname@GLIBC_2.2.5>
  4011e6:	68 1b 00 00 00       	push   $0x1b
  4011eb:	e9 30 fe ff ff       	jmp    401020 <_init+0x20>

00000000004011f0 <sprintf@plt>:
  4011f0:	ff 25 ea 3e 00 00    	jmp    *0x3eea(%rip)        # 4050e0 <sprintf@GLIBC_2.2.5>
  4011f6:	68 1c 00 00 00       	push   $0x1c
  4011fb:	e9 20 fe ff ff       	jmp    401020 <_init+0x20>

0000000000401200 <exit@plt>:
  401200:	ff 25 e2 3e 00 00    	jmp    *0x3ee2(%rip)        # 4050e8 <exit@GLIBC_2.2.5>
  401206:	68 1d 00 00 00       	push   $0x1d
  40120b:	e9 10 fe ff ff       	jmp    401020 <_init+0x20>

0000000000401210 <connect@plt>:
  401210:	ff 25 da 3e 00 00    	jmp    *0x3eda(%rip)        # 4050f0 <connect@GLIBC_2.2.5>
  401216:	68 1e 00 00 00       	push   $0x1e
  40121b:	e9 00 fe ff ff       	jmp    401020 <_init+0x20>

0000000000401220 <getc@plt>:
  401220:	ff 25 d2 3e 00 00    	jmp    *0x3ed2(%rip)        # 4050f8 <getc@GLIBC_2.2.5>
  401226:	68 1f 00 00 00       	push   $0x1f
  40122b:	e9 f0 fd ff ff       	jmp    401020 <_init+0x20>

0000000000401230 <socket@plt>:
  401230:	ff 25 ca 3e 00 00    	jmp    *0x3eca(%rip)        # 405100 <socket@GLIBC_2.2.5>
  401236:	68 20 00 00 00       	push   $0x20
  40123b:	e9 e0 fd ff ff       	jmp    401020 <_init+0x20>

Disassembly of section .text:

0000000000401240 <_start>:
  401240:	31 ed                	xor    %ebp,%ebp
  401242:	49 89 d1             	mov    %rdx,%r9
  401245:	5e                   	pop    %rsi
  401246:	48 89 e2             	mov    %rsp,%rdx
  401249:	48 83 e4 f0          	and    $0xfffffffffffffff0,%rsp
  40124d:	50                   	push   %rax
  40124e:	54                   	push   %rsp
  40124f:	45 31 c0             	xor    %r8d,%r8d
  401252:	31 c9                	xor    %ecx,%ecx
  401254:	48 c7 c7 df 14 40 00 	mov    $0x4014df,%rdi
  40125b:	ff 15 77 3d 00 00    	call   *0x3d77(%rip)        # 404fd8 <__libc_start_main@GLIBC_2.34>
  401261:	f4                   	hlt    
  401262:	66 2e 0f 1f 84 00 00 	cs nopw 0x0(%rax,%rax,1)
  401269:	00 00 00 
  40126c:	0f 1f 40 00          	nopl   0x0(%rax)

0000000000401270 <_dl_relocate_static_pie>:
  401270:	c3                   	ret    
  401271:	66 2e 0f 1f 84 00 00 	cs nopw 0x0(%rax,%rax,1)
  401278:	00 00 00 
  40127b:	0f 1f 44 00 00       	nopl   0x0(%rax,%rax,1)

0000000000401280 <deregister_tm_clones>:
  401280:	b8 98 54 40 00       	mov    $0x405498,%eax
  401285:	48 3d 98 54 40 00    	cmp    $0x405498,%rax
  40128b:	74 13                	je     4012a0 <deregister_tm_clones+0x20>
  40128d:	b8 00 00 00 00       	mov    $0x0,%eax
  401292:	48 85 c0             	test   %rax,%rax
  401295:	74 09                	je     4012a0 <deregister_tm_clones+0x20>
  401297:	bf 98 54 40 00       	mov    $0x405498,%edi
  40129c:	ff e0                	jmp    *%rax
  40129e:	66 90                	xchg   %ax,%ax
  4012a0:	c3                   	ret    
  4012a1:	66 66 2e 0f 1f 84 00 	data16 cs nopw 0x0(%rax,%rax,1)
  4012a8:	00 00 00 00 
  4012ac:	0f 1f 40 00          	nopl   0x0(%rax)

00000000004012b0 <register_tm_clones>:
  4012b0:	be 98 54 40 00       	mov    $0x405498,%esi
  4012b5:	48 81 ee 98 54 40 00 	sub    $0x405498,%rsi
  4012bc:	48 89 f0             	mov    %rsi,%rax
  4012bf:	48 c1 ee 3f          	shr    $0x3f,%rsi
  4012c3:	48 c1 f8 03          	sar    $0x3,%rax
  4012c7:	48 01 c6             	add    %rax,%rsi
  4012ca:	48 d1 fe             	sar    %rsi
  4012cd:	74 11                	je     4012e0 <register_tm_clones+0x30>
  4012cf:	b8 00 00 00 00       	mov    $0x0,%eax
  4012d4:	48 85 c0             	test   %rax,%rax
  4012d7:	74 07                	je     4012e0 <register_tm_clones+0x30>
  4012d9:	bf 98 54 40 00       	mov    $0x405498,%edi
  4012de:	ff e0                	jmp    *%rax
  4012e0:	c3                   	ret    
  4012e1:	66 66 2e 0f 1f 84 00 	data16 cs nopw 0x0(%rax,%rax,1)
  4012e8:	00 00 00 00 
  4012ec:	0f 1f 40 00          	nopl   0x0(%rax)

00000000004012f0 <__do_global_dtors_aux>:
  4012f0:	80 3d f1 41 00 00 00 	cmpb   $0x0,0x41f1(%rip)        # 4054e8 <completed.0>
  4012f7:	75 17                	jne    401310 <__do_global_dtors_aux+0x20>
  4012f9:	55                   	push   %rbp
  4012fa:	48 89 e5             	mov    %rsp,%rbp
  4012fd:	e8 7e ff ff ff       	call   401280 <deregister_tm_clones>
  401302:	c6 05 df 41 00 00 01 	movb   $0x1,0x41df(%rip)        # 4054e8 <completed.0>
  401309:	5d                   	pop    %rbp
  40130a:	c3                   	ret    
  40130b:	0f 1f 44 00 00       	nopl   0x0(%rax,%rax,1)
  401310:	c3                   	ret    
  401311:	66 66 2e 0f 1f 84 00 	data16 cs nopw 0x0(%rax,%rax,1)
  401318:	00 00 00 00 
  40131c:	0f 1f 40 00          	nopl   0x0(%rax)

0000000000401320 <frame_dummy>:
  401320:	eb 8e                	jmp    4012b0 <register_tm_clones>

0000000000401322 <usage>:
  401322:	48 83 ec 08          	sub    $0x8,%rsp
  401326:	48 89 fe             	mov    %rdi,%rsi
  401329:	83 3d 00 42 00 00 00 	cmpl   $0x0,0x4200(%rip)        # 405530 <is_checker>
  401330:	74 4b                	je     40137d <usage+0x5b>
  401332:	48 8d 3d cf 1c 00 00 	lea    0x1ccf(%rip),%rdi        # 403008 <_IO_stdin_used+0x8>
  401339:	b8 00 00 00 00       	mov    $0x0,%eax
  40133e:	e8 7d fd ff ff       	call   4010c0 <printf@plt>
  401343:	48 8d 3d f6 1c 00 00 	lea    0x1cf6(%rip),%rdi        # 403040 <_IO_stdin_used+0x40>
  40134a:	e8 31 fd ff ff       	call   401080 <puts@plt>
  40134f:	48 8d 3d 22 1e 00 00 	lea    0x1e22(%rip),%rdi        # 403178 <_IO_stdin_used+0x178>
  401356:	e8 25 fd ff ff       	call   401080 <puts@plt>
  40135b:	48 8d 3d 06 1d 00 00 	lea    0x1d06(%rip),%rdi        # 403068 <_IO_stdin_used+0x68>
  401362:	e8 19 fd ff ff       	call   401080 <puts@plt>
  401367:	48 8d 3d 24 1e 00 00 	lea    0x1e24(%rip),%rdi        # 403192 <_IO_stdin_used+0x192>
  40136e:	e8 0d fd ff ff       	call   401080 <puts@plt>
  401373:	bf 00 00 00 00       	mov    $0x0,%edi
  401378:	e8 83 fe ff ff       	call   401200 <exit@plt>
  40137d:	48 8d 3d 2a 1e 00 00 	lea    0x1e2a(%rip),%rdi        # 4031ae <_IO_stdin_used+0x1ae>
  401384:	b8 00 00 00 00       	mov    $0x0,%eax
  401389:	e8 32 fd ff ff       	call   4010c0 <printf@plt>
  40138e:	48 8d 3d fb 1c 00 00 	lea    0x1cfb(%rip),%rdi        # 403090 <_IO_stdin_used+0x90>
  401395:	e8 e6 fc ff ff       	call   401080 <puts@plt>
  40139a:	48 8d 3d 17 1d 00 00 	lea    0x1d17(%rip),%rdi        # 4030b8 <_IO_stdin_used+0xb8>
  4013a1:	e8 da fc ff ff       	call   401080 <puts@plt>
  4013a6:	48 8d 3d 1f 1e 00 00 	lea    0x1e1f(%rip),%rdi        # 4031cc <_IO_stdin_used+0x1cc>
  4013ad:	e8 ce fc ff ff       	call   401080 <puts@plt>
  4013b2:	eb bf                	jmp    401373 <usage+0x51>

00000000004013b4 <initialize_target>:
  4013b4:	55                   	push   %rbp
  4013b5:	53                   	push   %rbx
  4013b6:	48 81 ec 08 21 00 00 	sub    $0x2108,%rsp
  4013bd:	89 f5                	mov    %esi,%ebp
  4013bf:	89 3d 5b 41 00 00    	mov    %edi,0x415b(%rip)        # 405520 <check_level>
  4013c5:	8b 3d 65 3d 00 00    	mov    0x3d65(%rip),%edi        # 405130 <target_id>
  4013cb:	e8 8f 1b 00 00       	call   402f5f <gencookie>
  4013d0:	89 c7                	mov    %eax,%edi
  4013d2:	89 05 54 41 00 00    	mov    %eax,0x4154(%rip)        # 40552c <cookie>
  4013d8:	e8 82 1b 00 00       	call   402f5f <gencookie>
  4013dd:	89 05 45 41 00 00    	mov    %eax,0x4145(%rip)        # 405528 <authkey>
  4013e3:	8b 05 47 3d 00 00    	mov    0x3d47(%rip),%eax        # 405130 <target_id>
  4013e9:	8d 78 01             	lea    0x1(%rax),%edi
  4013ec:	e8 5f fc ff ff       	call   401050 <srandom@plt>
  4013f1:	e8 7a fd ff ff       	call   401170 <random@plt>
  4013f6:	48 89 c7             	mov    %rax,%rdi
  4013f9:	e8 b6 02 00 00       	call   4016b4 <scramble>
  4013fe:	89 c3                	mov    %eax,%ebx
  401400:	85 ed                	test   %ebp,%ebp
  401402:	75 3d                	jne    401441 <initialize_target+0x8d>
  401404:	b8 00 00 00 00       	mov    $0x0,%eax
  401409:	01 d8                	add    %ebx,%eax
  40140b:	0f b7 c0             	movzwl %ax,%eax
  40140e:	8d 04 c5 00 01 00 00 	lea    0x100(,%rax,8),%eax
  401415:	89 c0                	mov    %eax,%eax
  401417:	48 89 05 72 40 00 00 	mov    %rax,0x4072(%rip)        # 405490 <buf_offset>
  40141e:	c6 05 c4 40 00 00 63 	movb   $0x63,0x40c4(%rip)        # 4054e9 <target_prefix>
  401425:	83 3d 5c 40 00 00 00 	cmpl   $0x0,0x405c(%rip)        # 405488 <notify>
  40142c:	74 09                	je     401437 <initialize_target+0x83>
  40142e:	83 3d fb 40 00 00 00 	cmpl   $0x0,0x40fb(%rip)        # 405530 <is_checker>
  401435:	74 23                	je     40145a <initialize_target+0xa6>
  401437:	48 81 c4 08 21 00 00 	add    $0x2108,%rsp
  40143e:	5b                   	pop    %rbx
  40143f:	5d                   	pop    %rbp
  401440:	c3                   	ret    
  401441:	bf 00 00 00 00       	mov    $0x0,%edi
  401446:	e8 15 fd ff ff       	call   401160 <time@plt>
  40144b:	48 89 c7             	mov    %rax,%rdi
  40144e:	e8 fd fb ff ff       	call   401050 <srandom@plt>
  401453:	e8 18 fd ff ff       	call   401170 <random@plt>
  401458:	eb af                	jmp    401409 <initialize_target+0x55>
  40145a:	48 89 e7             	mov    %rsp,%rdi
  40145d:	be 00 01 00 00       	mov    $0x100,%esi
  401462:	e8 79 fd ff ff       	call   4011e0 <gethostname@plt>
  401467:	89 c3                	mov    %eax,%ebx
  401469:	85 c0                	test   %eax,%eax
  40146b:	75 24                	jne    401491 <initialize_target+0xdd>
  40146d:	48 63 c3             	movslq %ebx,%rax
  401470:	48 8d 15 e9 3c 00 00 	lea    0x3ce9(%rip),%rdx        # 405160 <host_table>
  401477:	48 8b 3c c2          	mov    (%rdx,%rax,8),%rdi
  40147b:	48 85 ff             	test   %rdi,%rdi
  40147e:	74 27                	je     4014a7 <initialize_target+0xf3>
  401480:	48 89 e6             	mov    %rsp,%rsi
  401483:	e8 a8 fb ff ff       	call   401030 <strcasecmp@plt>
  401488:	85 c0                	test   %eax,%eax
  40148a:	74 1b                	je     4014a7 <initialize_target+0xf3>
  40148c:	83 c3 01             	add    $0x1,%ebx
  40148f:	eb dc                	jmp    40146d <initialize_target+0xb9>
  401491:	48 8d 3d 50 1c 00 00 	lea    0x1c50(%rip),%rdi        # 4030e8 <_IO_stdin_used+0xe8>
  401498:	e8 e3 fb ff ff       	call   401080 <puts@plt>
  40149d:	bf 08 00 00 00       	mov    $0x8,%edi
  4014a2:	e8 59 fd ff ff       	call   401200 <exit@plt>
  4014a7:	48 8d bc 24 00 01 00 	lea    0x100(%rsp),%rdi
  4014ae:	00 
  4014af:	e8 14 18 00 00       	call   402cc8 <init_driver>
  4014b4:	85 c0                	test   %eax,%eax
  4014b6:	0f 89 7b ff ff ff    	jns    401437 <initialize_target+0x83>
  4014bc:	48 8d b4 24 00 01 00 	lea    0x100(%rsp),%rsi
  4014c3:	00 
  4014c4:	48 8d 3d 55 1c 00 00 	lea    0x1c55(%rip),%rdi        # 403120 <_IO_stdin_used+0x120>
  4014cb:	b8 00 00 00 00       	mov    $0x0,%eax
  4014d0:	e8 eb fb ff ff       	call   4010c0 <printf@plt>
  4014d5:	bf 08 00 00 00       	mov    $0x8,%edi
  4014da:	e8 21 fd ff ff       	call   401200 <exit@plt>

00000000004014df <main>:
  4014df:	41 56                	push   %r14
  4014e1:	41 55                	push   %r13
  4014e3:	41 54                	push   %r12
  4014e5:	55                   	push   %rbp
  4014e6:	53                   	push   %rbx
  4014e7:	89 fd                	mov    %edi,%ebp
  4014e9:	48 89 f3             	mov    %rsi,%rbx
  4014ec:	48 c7 c6 da 20 40 00 	mov    $0x4020da,%rsi
  4014f3:	bf 0b 00 00 00       	mov    $0xb,%edi
  4014f8:	e8 13 fc ff ff       	call   401110 <signal@plt>
  4014fd:	48 c7 c6 86 20 40 00 	mov    $0x402086,%rsi
  401504:	bf 07 00 00 00       	mov    $0x7,%edi
  401509:	e8 02 fc ff ff       	call   401110 <signal@plt>
  40150e:	48 c7 c6 2e 21 40 00 	mov    $0x40212e,%rsi
  401515:	bf 04 00 00 00       	mov    $0x4,%edi
  40151a:	e8 f1 fb ff ff       	call   401110 <signal@plt>
  40151f:	83 3d 0a 40 00 00 00 	cmpl   $0x0,0x400a(%rip)        # 405530 <is_checker>
  401526:	75 26                	jne    40154e <main+0x6f>
  401528:	4c 8d 25 be 1c 00 00 	lea    0x1cbe(%rip),%r12        # 4031ed <_IO_stdin_used+0x1ed>
  40152f:	48 8b 05 6a 3f 00 00 	mov    0x3f6a(%rip),%rax        # 4054a0 <stdin@GLIBC_2.2.5>
  401536:	48 89 05 db 3f 00 00 	mov    %rax,0x3fdb(%rip)        # 405518 <infile>
  40153d:	41 bd 00 00 00 00    	mov    $0x0,%r13d
  401543:	41 be 00 00 00 00    	mov    $0x0,%r14d
  401549:	e9 88 00 00 00       	jmp    4015d6 <main+0xf7>
  40154e:	48 c7 c6 82 21 40 00 	mov    $0x402182,%rsi
  401555:	bf 0e 00 00 00       	mov    $0xe,%edi
  40155a:	e8 b1 fb ff ff       	call   401110 <signal@plt>
  40155f:	bf 05 00 00 00       	mov    $0x5,%edi
  401564:	e8 77 fb ff ff       	call   4010e0 <alarm@plt>
  401569:	4c 8d 25 75 1c 00 00 	lea    0x1c75(%rip),%r12        # 4031e5 <_IO_stdin_used+0x1e5>
  401570:	eb bd                	jmp    40152f <main+0x50>
  401572:	48 8b 3b             	mov    (%rbx),%rdi
  401575:	e8 a8 fd ff ff       	call   401322 <usage>
  40157a:	48 8d 35 f4 1e 00 00 	lea    0x1ef4(%rip),%rsi        # 403475 <_IO_stdin_used+0x475>
  401581:	48 8b 3d 38 3f 00 00 	mov    0x3f38(%rip),%rdi        # 4054c0 <optarg@GLIBC_2.2.5>
  401588:	e8 23 fc ff ff       	call   4011b0 <fopen@plt>
  40158d:	48 89 05 84 3f 00 00 	mov    %rax,0x3f84(%rip)        # 405518 <infile>
  401594:	48 85 c0             	test   %rax,%rax
  401597:	75 3d                	jne    4015d6 <main+0xf7>
  401599:	48 8b 15 20 3f 00 00 	mov    0x3f20(%rip),%rdx        # 4054c0 <optarg@GLIBC_2.2.5>
  4015a0:	48 8d 35 4b 1c 00 00 	lea    0x1c4b(%rip),%rsi        # 4031f2 <_IO_stdin_used+0x1f2>
  4015a7:	48 8b 3d 32 3f 00 00 	mov    0x3f32(%rip),%rdi        # 4054e0 <stderr@GLIBC_2.2.5>
  4015ae:	e8 7d fb ff ff       	call   401130 <fprintf@plt>
  4015b3:	b8 01 00 00 00       	mov    $0x1,%eax
  4015b8:	e9 ce 00 00 00       	jmp    40168b <main+0x1ac>
  4015bd:	ba 10 00 00 00       	mov    $0x10,%edx
  4015c2:	be 00 00 00 00       	mov    $0x0,%esi
  4015c7:	48 8b 3d f2 3e 00 00 	mov    0x3ef2(%rip),%rdi        # 4054c0 <optarg@GLIBC_2.2.5>
  4015ce:	e8 fd fb ff ff       	call   4011d0 <strtoul@plt>
  4015d3:	41 89 c6             	mov    %eax,%r14d
  4015d6:	4c 89 e2             	mov    %r12,%rdx
  4015d9:	48 89 de             	mov    %rbx,%rsi
  4015dc:	89 ef                	mov    %ebp,%edi
  4015de:	e8 dd fb ff ff       	call   4011c0 <getopt@plt>
  4015e3:	3c ff                	cmp    $0xff,%al
  4015e5:	74 5d                	je     401644 <main+0x165>
  4015e7:	0f be f0             	movsbl %al,%esi
  4015ea:	83 e8 61             	sub    $0x61,%eax
  4015ed:	3c 10                	cmp    $0x10,%al
  4015ef:	77 3a                	ja     40162b <main+0x14c>
  4015f1:	0f b6 c0             	movzbl %al,%eax
  4015f4:	48 8d 15 35 1c 00 00 	lea    0x1c35(%rip),%rdx        # 403230 <_IO_stdin_used+0x230>
  4015fb:	48 63 04 82          	movslq (%rdx,%rax,4),%rax
  4015ff:	48 01 d0             	add    %rdx,%rax
  401602:	ff e0                	jmp    *%rax
  401604:	ba 0a 00 00 00       	mov    $0xa,%edx
  401609:	be 00 00 00 00       	mov    $0x0,%esi
  40160e:	48 8b 3d ab 3e 00 00 	mov    0x3eab(%rip),%rdi        # 4054c0 <optarg@GLIBC_2.2.5>
  401615:	e8 26 fb ff ff       	call   401140 <strtol@plt>
  40161a:	41 89 c5             	mov    %eax,%r13d
  40161d:	eb b7                	jmp    4015d6 <main+0xf7>
  40161f:	c7 05 5f 3e 00 00 00 	movl   $0x0,0x3e5f(%rip)        # 405488 <notify>
  401626:	00 00 00 
  401629:	eb ab                	jmp    4015d6 <main+0xf7>
  40162b:	48 8d 3d dd 1b 00 00 	lea    0x1bdd(%rip),%rdi        # 40320f <_IO_stdin_used+0x20f>
  401632:	b8 00 00 00 00       	mov    $0x0,%eax
  401637:	e8 84 fa ff ff       	call   4010c0 <printf@plt>
  40163c:	48 8b 3b             	mov    (%rbx),%rdi
  40163f:	e8 de fc ff ff       	call   401322 <usage>
  401644:	be 00 00 00 00       	mov    $0x0,%esi
  401649:	44 89 ef             	mov    %r13d,%edi
  40164c:	e8 63 fd ff ff       	call   4013b4 <initialize_target>
  401651:	83 3d d8 3e 00 00 00 	cmpl   $0x0,0x3ed8(%rip)        # 405530 <is_checker>
  401658:	74 09                	je     401663 <main+0x184>
  40165a:	44 39 35 c7 3e 00 00 	cmp    %r14d,0x3ec7(%rip)        # 405528 <authkey>
  401661:	75 31                	jne    401694 <main+0x1b5>
  401663:	8b 35 c3 3e 00 00    	mov    0x3ec3(%rip),%esi        # 40552c <cookie>
  401669:	48 8d 3d b2 1b 00 00 	lea    0x1bb2(%rip),%rdi        # 403222 <_IO_stdin_used+0x222>
  401670:	b8 00 00 00 00       	mov    $0x0,%eax
  401675:	e8 46 fa ff ff       	call   4010c0 <printf@plt>
  40167a:	48 8b 3d 0f 3e 00 00 	mov    0x3e0f(%rip),%rdi        # 405490 <buf_offset>
  401681:	e8 d7 0b 00 00       	call   40225d <stable_launch>
  401686:	b8 00 00 00 00       	mov    $0x0,%eax
  40168b:	5b                   	pop    %rbx
  40168c:	5d                   	pop    %rbp
  40168d:	41 5c                	pop    %r12
  40168f:	41 5d                	pop    %r13
  401691:	41 5e                	pop    %r14
  401693:	c3                   	ret    
  401694:	44 89 f6             	mov    %r14d,%esi
  401697:	48 8d 3d aa 1a 00 00 	lea    0x1aaa(%rip),%rdi        # 403148 <_IO_stdin_used+0x148>
  40169e:	b8 00 00 00 00       	mov    $0x0,%eax
  4016a3:	e8 18 fa ff ff       	call   4010c0 <printf@plt>
  4016a8:	b8 00 00 00 00       	mov    $0x0,%eax
  4016ad:	e8 a8 06 00 00       	call   401d5a <check_fail>
  4016b2:	eb af                	jmp    401663 <main+0x184>

00000000004016b4 <scramble>:
  4016b4:	b8 00 00 00 00       	mov    $0x0,%eax
  4016b9:	eb 11                	jmp    4016cc <scramble+0x18>
  4016bb:	69 d0 6a 07 00 00    	imul   $0x76a,%eax,%edx
  4016c1:	01 fa                	add    %edi,%edx
  4016c3:	89 c1                	mov    %eax,%ecx
  4016c5:	89 54 8c d0          	mov    %edx,-0x30(%rsp,%rcx,4)
  4016c9:	83 c0 01             	add    $0x1,%eax
  4016cc:	83 f8 09             	cmp    $0x9,%eax
  4016cf:	76 ea                	jbe    4016bb <scramble+0x7>
  4016d1:	8b 44 24 dc          	mov    -0x24(%rsp),%eax
  4016d5:	69 c0 d8 7b 00 00    	imul   $0x7bd8,%eax,%eax
  4016db:	89 44 24 dc          	mov    %eax,-0x24(%rsp)
  4016df:	8b 44 24 d4          	mov    -0x2c(%rsp),%eax
  4016e3:	69 c0 9d 3f 00 00    	imul   $0x3f9d,%eax,%eax
  4016e9:	89 44 24 d4          	mov    %eax,-0x2c(%rsp)
  4016ed:	8b 44 24 dc          	mov    -0x24(%rsp),%eax
  4016f1:	69 c0 e8 31 00 00    	imul   $0x31e8,%eax,%eax
  4016f7:	89 44 24 dc          	mov    %eax,-0x24(%rsp)
  4016fb:	8b 44 24 f4          	mov    -0xc(%rsp),%eax
  4016ff:	69 c0 a5 55 00 00    	imul   $0x55a5,%eax,%eax
  401705:	89 44 24 f4          	mov    %eax,-0xc(%rsp)
  401709:	8b 44 24 e0          	mov    -0x20(%rsp),%eax
  40170d:	69 c0 51 63 00 00    	imul   $0x6351,%eax,%eax
  401713:	89 44 24 e0          	mov    %eax,-0x20(%rsp)
  401717:	8b 44 24 d4          	mov    -0x2c(%rsp),%eax
  40171b:	69 c0 37 9c 00 00    	imul   $0x9c37,%eax,%eax
  401721:	89 44 24 d4          	mov    %eax,-0x2c(%rsp)
  401725:	8b 44 24 d8          	mov    -0x28(%rsp),%eax
  401729:	69 c0 95 33 00 00    	imul   $0x3395,%eax,%eax
  40172f:	89 44 24 d8          	mov    %eax,-0x28(%rsp)
  401733:	8b 44 24 dc          	mov    -0x24(%rsp),%eax
  401737:	69 c0 b3 7b 00 00    	imul   $0x7bb3,%eax,%eax
  40173d:	89 44 24 dc          	mov    %eax,-0x24(%rsp)
  401741:	8b 44 24 d4          	mov    -0x2c(%rsp),%eax
  401745:	69 c0 d6 c0 00 00    	imul   $0xc0d6,%eax,%eax
  40174b:	89 44 24 d4          	mov    %eax,-0x2c(%rsp)
  40174f:	8b 44 24 e0          	mov    -0x20(%rsp),%eax
  401753:	69 c0 55 5f 00 00    	imul   $0x5f55,%eax,%eax
  401759:	89 44 24 e0          	mov    %eax,-0x20(%rsp)
  40175d:	8b 44 24 f0          	mov    -0x10(%rsp),%eax
  401761:	69 c0 50 57 00 00    	imul   $0x5750,%eax,%eax
  401767:	89 44 24 f0          	mov    %eax,-0x10(%rsp)
  40176b:	8b 44 24 f0          	mov    -0x10(%rsp),%eax
  40176f:	69 c0 bb da 00 00    	imul   $0xdabb,%eax,%eax
  401775:	89 44 24 f0          	mov    %eax,-0x10(%rsp)
  401779:	8b 44 24 d4          	mov    -0x2c(%rsp),%eax
  40177d:	69 c0 93 28 00 00    	imul   $0x2893,%eax,%eax
  401783:	89 44 24 d4          	mov    %eax,-0x2c(%rsp)
  401787:	8b 44 24 d4          	mov    -0x2c(%rsp),%eax
  40178b:	69 c0 df 5a 00 00    	imul   $0x5adf,%eax,%eax
  401791:	89 44 24 d4          	mov    %eax,-0x2c(%rsp)
  401795:	8b 44 24 e4          	mov    -0x1c(%rsp),%eax
  401799:	69 c0 ac 02 00 00    	imul   $0x2ac,%eax,%eax
  40179f:	89 44 24 e4          	mov    %eax,-0x1c(%rsp)
  4017a3:	8b 44 24 e0          	mov    -0x20(%rsp),%eax
  4017a7:	69 c0 df 88 00 00    	imul   $0x88df,%eax,%eax
  4017ad:	89 44 24 e0          	mov    %eax,-0x20(%rsp)
  4017b1:	8b 44 24 e8          	mov    -0x18(%rsp),%eax
  4017b5:	69 c0 8a 0d 00 00    	imul   $0xd8a,%eax,%eax
  4017bb:	89 44 24 e8          	mov    %eax,-0x18(%rsp)
  4017bf:	8b 44 24 d8          	mov    -0x28(%rsp),%eax
  4017c3:	69 c0 33 6a 00 00    	imul   $0x6a33,%eax,%eax
  4017c9:	89 44 24 d8          	mov    %eax,-0x28(%rsp)
  4017cd:	8b 44 24 d0          	mov    -0x30(%rsp),%eax
  4017d1:	69 c0 3a 3a 00 00    	imul   $0x3a3a,%eax,%eax
  4017d7:	89 44 24 d0          	mov    %eax,-0x30(%rsp)
  4017db:	8b 44 24 d4          	mov    -0x2c(%rsp),%eax
  4017df:	69 c0 60 70 00 00    	imul   $0x7060,%eax,%eax
  4017e5:	89 44 24 d4          	mov    %eax,-0x2c(%rsp)
  4017e9:	8b 44 24 dc          	mov    -0x24(%rsp),%eax
  4017ed:	69 c0 82 60 00 00    	imul   $0x6082,%eax,%eax
  4017f3:	89 44 24 dc          	mov    %eax,-0x24(%rsp)
  4017f7:	8b 44 24 f0          	mov    -0x10(%rsp),%eax
  4017fb:	69 c0 08 b7 00 00    	imul   $0xb708,%eax,%eax
  401801:	89 44 24 f0          	mov    %eax,-0x10(%rsp)
  401805:	8b 44 24 dc          	mov    -0x24(%rsp),%eax
  401809:	69 c0 bb 4f 00 00    	imul   $0x4fbb,%eax,%eax
  40180f:	89 44 24 dc          	mov    %eax,-0x24(%rsp)
  401813:	8b 44 24 e4          	mov    -0x1c(%rsp),%eax
  401817:	69 c0 d5 21 00 00    	imul   $0x21d5,%eax,%eax
  40181d:	89 44 24 e4          	mov    %eax,-0x1c(%rsp)
  401821:	8b 44 24 d0          	mov    -0x30(%rsp),%eax
  401825:	69 c0 59 f2 00 00    	imul   $0xf259,%eax,%eax
  40182b:	89 44 24 d0          	mov    %eax,-0x30(%rsp)
  40182f:	8b 44 24 d4          	mov    -0x2c(%rsp),%eax
  401833:	69 c0 6f ef 00 00    	imul   $0xef6f,%eax,%eax
  401839:	89 44 24 d4          	mov    %eax,-0x2c(%rsp)
  40183d:	8b 44 24 ec          	mov    -0x14(%rsp),%eax
  401841:	69 c0 3a 9d 00 00    	imul   $0x9d3a,%eax,%eax
  401847:	89 44 24 ec          	mov    %eax,-0x14(%rsp)
  40184b:	8b 44 24 dc          	mov    -0x24(%rsp),%eax
  40184f:	69 c0 db 17 00 00    	imul   $0x17db,%eax,%eax
  401855:	89 44 24 dc          	mov    %eax,-0x24(%rsp)
  401859:	8b 44 24 e8          	mov    -0x18(%rsp),%eax
  40185d:	69 c0 a6 18 00 00    	imul   $0x18a6,%eax,%eax
  401863:	89 44 24 e8          	mov    %eax,-0x18(%rsp)
  401867:	8b 44 24 d0          	mov    -0x30(%rsp),%eax
  40186b:	69 c0 42 47 00 00    	imul   $0x4742,%eax,%eax
  401871:	89 44 24 d0          	mov    %eax,-0x30(%rsp)
  401875:	8b 44 24 e8          	mov    -0x18(%rsp),%eax
  401879:	69 c0 a3 c6 00 00    	imul   $0xc6a3,%eax,%eax
  40187f:	89 44 24 e8          	mov    %eax,-0x18(%rsp)
  401883:	8b 44 24 dc          	mov    -0x24(%rsp),%eax
  401887:	69 c0 d6 99 00 00    	imul   $0x99d6,%eax,%eax
  40188d:	89 44 24 dc          	mov    %eax,-0x24(%rsp)
  401891:	8b 44 24 d4          	mov    -0x2c(%rsp),%eax
  401895:	69 c0 9e 98 00 00    	imul   $0x989e,%eax,%eax
  40189b:	89 44 24 d4          	mov    %eax,-0x2c(%rsp)
  40189f:	8b 44 24 e8          	mov    -0x18(%rsp),%eax
  4018a3:	69 c0 a0 13 00 00    	imul   $0x13a0,%eax,%eax
  4018a9:	89 44 24 e8          	mov    %eax,-0x18(%rsp)
  4018ad:	8b 44 24 d0          	mov    -0x30(%rsp),%eax
  4018b1:	69 c0 e2 c3 00 00    	imul   $0xc3e2,%eax,%eax
  4018b7:	89 44 24 d0          	mov    %eax,-0x30(%rsp)
  4018bb:	8b 44 24 f0          	mov    -0x10(%rsp),%eax
  4018bf:	69 c0 63 70 00 00    	imul   $0x7063,%eax,%eax
  4018c5:	89 44 24 f0          	mov    %eax,-0x10(%rsp)
  4018c9:	8b 44 24 d8          	mov    -0x28(%rsp),%eax
  4018cd:	69 c0 97 90 00 00    	imul   $0x9097,%eax,%eax
  4018d3:	89 44 24 d8          	mov    %eax,-0x28(%rsp)
  4018d7:	8b 44 24 d4          	mov    -0x2c(%rsp),%eax
  4018db:	69 c0 7c b8 00 00    	imul   $0xb87c,%eax,%eax
  4018e1:	89 44 24 d4          	mov    %eax,-0x2c(%rsp)
  4018e5:	8b 44 24 e0          	mov    -0x20(%rsp),%eax
  4018e9:	69 c0 27 5a 00 00    	imul   $0x5a27,%eax,%eax
  4018ef:	89 44 24 e0          	mov    %eax,-0x20(%rsp)
  4018f3:	8b 44 24 e0          	mov    -0x20(%rsp),%eax
  4018f7:	69 c0 e4 f0 00 00    	imul   $0xf0e4,%eax,%eax
  4018fd:	89 44 24 e0          	mov    %eax,-0x20(%rsp)
  401901:	8b 44 24 d0          	mov    -0x30(%rsp),%eax
  401905:	69 c0 7c 5b 00 00    	imul   $0x5b7c,%eax,%eax
  40190b:	89 44 24 d0          	mov    %eax,-0x30(%rsp)
  40190f:	8b 44 24 e4          	mov    -0x1c(%rsp),%eax
  401913:	69 c0 29 96 00 00    	imul   $0x9629,%eax,%eax
  401919:	89 44 24 e4          	mov    %eax,-0x1c(%rsp)
  40191d:	8b 44 24 e8          	mov    -0x18(%rsp),%eax
  401921:	69 c0 7f aa 00 00    	imul   $0xaa7f,%eax,%eax
  401927:	89 44 24 e8          	mov    %eax,-0x18(%rsp)
  40192b:	8b 44 24 ec          	mov    -0x14(%rsp),%eax
  40192f:	69 c0 84 be 00 00    	imul   $0xbe84,%eax,%eax
  401935:	89 44 24 ec          	mov    %eax,-0x14(%rsp)
  401939:	8b 44 24 ec          	mov    -0x14(%rsp),%eax
  40193d:	69 c0 be 20 00 00    	imul   $0x20be,%eax,%eax
  401943:	89 44 24 ec          	mov    %eax,-0x14(%rsp)
  401947:	8b 44 24 ec          	mov    -0x14(%rsp),%eax
  40194b:	69 c0 77 de 00 00    	imul   $0xde77,%eax,%eax
  401951:	89 44 24 ec          	mov    %eax,-0x14(%rsp)
  401955:	8b 44 24 d4          	mov    -0x2c(%rsp),%eax
  401959:	69 c0 e9 d5 00 00    	imul   $0xd5e9,%eax,%eax
  40195f:	89 44 24 d4          	mov    %eax,-0x2c(%rsp)
  401963:	8b 44 24 e4          	mov    -0x1c(%rsp),%eax
  401967:	69 c0 8f bb 00 00    	imul   $0xbb8f,%eax,%eax
  40196d:	89 44 24 e4          	mov    %eax,-0x1c(%rsp)
  401971:	8b 44 24 f4          	mov    -0xc(%rsp),%eax
  401975:	69 c0 56 7c 00 00    	imul   $0x7c56,%eax,%eax
  40197b:	89 44 24 f4          	mov    %eax,-0xc(%rsp)
  40197f:	8b 44 24 e8          	mov    -0x18(%rsp),%eax
  401983:	69 c0 60 41 00 00    	imul   $0x4160,%eax,%eax
  401989:	89 44 24 e8          	mov    %eax,-0x18(%rsp)
  40198d:	8b 44 24 d4          	mov    -0x2c(%rsp),%eax
  401991:	69 c0 2f 53 00 00    	imul   $0x532f,%eax,%eax
  401997:	89 44 24 d4          	mov    %eax,-0x2c(%rsp)
  40199b:	8b 44 24 e0          	mov    -0x20(%rsp),%eax
  40199f:	69 c0 9d 64 00 00    	imul   $0x649d,%eax,%eax
  4019a5:	89 44 24 e0          	mov    %eax,-0x20(%rsp)
  4019a9:	8b 44 24 e4          	mov    -0x1c(%rsp),%eax
  4019ad:	69 c0 2f d9 00 00    	imul   $0xd92f,%eax,%eax
  4019b3:	89 44 24 e4          	mov    %eax,-0x1c(%rsp)
  4019b7:	8b 44 24 dc          	mov    -0x24(%rsp),%eax
  4019bb:	69 c0 19 c4 00 00    	imul   $0xc419,%eax,%eax
  4019c1:	89 44 24 dc          	mov    %eax,-0x24(%rsp)
  4019c5:	8b 44 24 e0          	mov    -0x20(%rsp),%eax
  4019c9:	69 c0 6b f7 00 00    	imul   $0xf76b,%eax,%eax
  4019cf:	89 44 24 e0          	mov    %eax,-0x20(%rsp)
  4019d3:	8b 44 24 e8          	mov    -0x18(%rsp),%eax
  4019d7:	69 c0 d7 7f 00 00    	imul   $0x7fd7,%eax,%eax
  4019dd:	89 44 24 e8          	mov    %eax,-0x18(%rsp)
  4019e1:	8b 44 24 e4          	mov    -0x1c(%rsp),%eax
  4019e5:	69 c0 52 95 00 00    	imul   $0x9552,%eax,%eax
  4019eb:	89 44 24 e4          	mov    %eax,-0x1c(%rsp)
  4019ef:	8b 44 24 dc          	mov    -0x24(%rsp),%eax
  4019f3:	69 c0 9f 4b 00 00    	imul   $0x4b9f,%eax,%eax
  4019f9:	89 44 24 dc          	mov    %eax,-0x24(%rsp)
  4019fd:	8b 44 24 d4          	mov    -0x2c(%rsp),%eax
  401a01:	69 c0 05 c4 00 00    	imul   $0xc405,%eax,%eax
  401a07:	89 44 24 d4          	mov    %eax,-0x2c(%rsp)
  401a0b:	8b 44 24 d0          	mov    -0x30(%rsp),%eax
  401a0f:	69 c0 f6 02 00 00    	imul   $0x2f6,%eax,%eax
  401a15:	89 44 24 d0          	mov    %eax,-0x30(%rsp)
  401a19:	8b 44 24 f4          	mov    -0xc(%rsp),%eax
  401a1d:	69 c0 ea 0f 00 00    	imul   $0xfea,%eax,%eax
  401a23:	89 44 24 f4          	mov    %eax,-0xc(%rsp)
  401a27:	8b 44 24 d4          	mov    -0x2c(%rsp),%eax
  401a2b:	69 c0 25 cc 00 00    	imul   $0xcc25,%eax,%eax
  401a31:	89 44 24 d4          	mov    %eax,-0x2c(%rsp)
  401a35:	8b 44 24 d0          	mov    -0x30(%rsp),%eax
  401a39:	69 c0 ba 59 00 00    	imul   $0x59ba,%eax,%eax
  401a3f:	89 44 24 d0          	mov    %eax,-0x30(%rsp)
  401a43:	8b 44 24 e8          	mov    -0x18(%rsp),%eax
  401a47:	69 c0 5b 54 00 00    	imul   $0x545b,%eax,%eax
  401a4d:	89 44 24 e8          	mov    %eax,-0x18(%rsp)
  401a51:	8b 44 24 dc          	mov    -0x24(%rsp),%eax
  401a55:	69 c0 e3 56 00 00    	imul   $0x56e3,%eax,%eax
  401a5b:	89 44 24 dc          	mov    %eax,-0x24(%rsp)
  401a5f:	8b 44 24 d0          	mov    -0x30(%rsp),%eax
  401a63:	69 c0 49 16 00 00    	imul   $0x1649,%eax,%eax
  401a69:	89 44 24 d0          	mov    %eax,-0x30(%rsp)
  401a6d:	8b 44 24 d8          	mov    -0x28(%rsp),%eax
  401a71:	69 c0 7e 47 00 00    	imul   $0x477e,%eax,%eax
  401a77:	89 44 24 d8          	mov    %eax,-0x28(%rsp)
  401a7b:	8b 44 24 d8          	mov    -0x28(%rsp),%eax
  401a7f:	69 c0 d9 8d 00 00    	imul   $0x8dd9,%eax,%eax
  401a85:	89 44 24 d8          	mov    %eax,-0x28(%rsp)
  401a89:	8b 44 24 d8          	mov    -0x28(%rsp),%eax
  401a8d:	69 c0 ff 97 00 00    	imul   $0x97ff,%eax,%eax
  401a93:	89 44 24 d8          	mov    %eax,-0x28(%rsp)
  401a97:	8b 44 24 d4          	mov    -0x2c(%rsp),%eax
  401a9b:	69 c0 05 54 00 00    	imul   $0x5405,%eax,%eax
  401aa1:	89 44 24 d4          	mov    %eax,-0x2c(%rsp)
  401aa5:	8b 44 24 e0          	mov    -0x20(%rsp),%eax
  401aa9:	69 c0 f0 06 00 00    	imul   $0x6f0,%eax,%eax
  401aaf:	89 44 24 e0          	mov    %eax,-0x20(%rsp)
  401ab3:	8b 44 24 e0          	mov    -0x20(%rsp),%eax
  401ab7:	69 c0 53 e2 00 00    	imul   $0xe253,%eax,%eax
  401abd:	89 44 24 e0          	mov    %eax,-0x20(%rsp)
  401ac1:	8b 44 24 d0          	mov    -0x30(%rsp),%eax
  401ac5:	69 c0 dd e9 00 00    	imul   $0xe9dd,%eax,%eax
  401acb:	89 44 24 d0          	mov    %eax,-0x30(%rsp)
  401acf:	8b 44 24 ec          	mov    -0x14(%rsp),%eax
  401ad3:	69 c0 13 dc 00 00    	imul   $0xdc13,%eax,%eax
  401ad9:	89 44 24 ec          	mov    %eax,-0x14(%rsp)
  401add:	8b 44 24 d4          	mov    -0x2c(%rsp),%eax
  401ae1:	69 c0 15 38 00 00    	imul   $0x3815,%eax,%eax
  401ae7:	89 44 24 d4          	mov    %eax,-0x2c(%rsp)
  401aeb:	8b 44 24 d0          	mov    -0x30(%rsp),%eax
  401aef:	69 c0 a7 92 00 00    	imul   $0x92a7,%eax,%eax
  401af5:	89 44 24 d0          	mov    %eax,-0x30(%rsp)
  401af9:	8b 44 24 e8          	mov    -0x18(%rsp),%eax
  401afd:	69 c0 76 c0 00 00    	imul   $0xc076,%eax,%eax
  401b03:	89 44 24 e8          	mov    %eax,-0x18(%rsp)
  401b07:	8b 44 24 e8          	mov    -0x18(%rsp),%eax
  401b0b:	69 c0 d3 2d 00 00    	imul   $0x2dd3,%eax,%eax
  401b11:	89 44 24 e8          	mov    %eax,-0x18(%rsp)
  401b15:	8b 44 24 e0          	mov    -0x20(%rsp),%eax
  401b19:	69 c0 81 e6 00 00    	imul   $0xe681,%eax,%eax
  401b1f:	89 44 24 e0          	mov    %eax,-0x20(%rsp)
  401b23:	b8 00 00 00 00       	mov    $0x0,%eax
  401b28:	ba 00 00 00 00       	mov    $0x0,%edx
  401b2d:	eb 0b                	jmp    401b3a <scramble+0x486>
  401b2f:	89 c1                	mov    %eax,%ecx
  401b31:	8b 4c 8c d0          	mov    -0x30(%rsp,%rcx,4),%ecx
  401b35:	01 ca                	add    %ecx,%edx
  401b37:	83 c0 01             	add    $0x1,%eax
  401b3a:	83 f8 09             	cmp    $0x9,%eax
  401b3d:	76 f0                	jbe    401b2f <scramble+0x47b>
  401b3f:	89 d0                	mov    %edx,%eax
  401b41:	c3                   	ret    

0000000000401b42 <getbuf>:
  401b42:	48 83 ec 28          	sub    $0x28,%rsp
  401b46:	48 89 e7             	mov    %rsp,%rdi
  401b49:	e8 3f 02 00 00       	call   401d8d <Gets>
  401b4e:	b8 01 00 00 00       	mov    $0x1,%eax
  401b53:	48 83 c4 28          	add    $0x28,%rsp
  401b57:	c3                   	ret    

0000000000401b58 <touch1>:
  401b58:	48 83 ec 08          	sub    $0x8,%rsp
  401b5c:	c7 05 be 39 00 00 01 	movl   $0x1,0x39be(%rip)        # 405524 <vlevel>
  401b63:	00 00 00 
  401b66:	48 8d 3d 5e 17 00 00 	lea    0x175e(%rip),%rdi        # 4032cb <_IO_stdin_used+0x2cb>
  401b6d:	e8 0e f5 ff ff       	call   401080 <puts@plt>
  401b72:	bf 01 00 00 00       	mov    $0x1,%edi
  401b77:	e8 24 04 00 00       	call   401fa0 <validate>
  401b7c:	bf 00 00 00 00       	mov    $0x0,%edi
  401b81:	e8 7a f6 ff ff       	call   401200 <exit@plt>

0000000000401b86 <touch2>:
  401b86:	48 83 ec 08          	sub    $0x8,%rsp
  401b8a:	89 fe                	mov    %edi,%esi
  401b8c:	c7 05 8e 39 00 00 02 	movl   $0x2,0x398e(%rip)        # 405524 <vlevel>
  401b93:	00 00 00 
  401b96:	39 3d 90 39 00 00    	cmp    %edi,0x3990(%rip)        # 40552c <cookie>
  401b9c:	74 25                	je     401bc3 <touch2+0x3d>
  401b9e:	48 8d 3d 73 17 00 00 	lea    0x1773(%rip),%rdi        # 403318 <_IO_stdin_used+0x318>
  401ba5:	b8 00 00 00 00       	mov    $0x0,%eax
  401baa:	e8 11 f5 ff ff       	call   4010c0 <printf@plt>
  401baf:	bf 02 00 00 00       	mov    $0x2,%edi
  401bb4:	e8 a5 04 00 00       	call   40205e <fail>
  401bb9:	bf 00 00 00 00       	mov    $0x0,%edi
  401bbe:	e8 3d f6 ff ff       	call   401200 <exit@plt>
  401bc3:	48 8d 3d 26 17 00 00 	lea    0x1726(%rip),%rdi        # 4032f0 <_IO_stdin_used+0x2f0>
  401bca:	b8 00 00 00 00       	mov    $0x0,%eax
  401bcf:	e8 ec f4 ff ff       	call   4010c0 <printf@plt>
  401bd4:	bf 02 00 00 00       	mov    $0x2,%edi
  401bd9:	e8 c2 03 00 00       	call   401fa0 <validate>
  401bde:	eb d9                	jmp    401bb9 <touch2+0x33>

0000000000401be0 <hexmatch>:
  401be0:	41 54                	push   %r12
  401be2:	55                   	push   %rbp
  401be3:	53                   	push   %rbx
  401be4:	48 83 ec 70          	sub    $0x70,%rsp
  401be8:	89 fd                	mov    %edi,%ebp
  401bea:	48 89 f3             	mov    %rsi,%rbx
  401bed:	e8 7e f5 ff ff       	call   401170 <random@plt>
  401bf2:	48 89 c1             	mov    %rax,%rcx
  401bf5:	48 ba 0b d7 a3 70 3d 	movabs $0xa3d70a3d70a3d70b,%rdx
  401bfc:	0a d7 a3 
  401bff:	48 f7 ea             	imul   %rdx
  401c02:	48 01 ca             	add    %rcx,%rdx
  401c05:	48 c1 fa 06          	sar    $0x6,%rdx
  401c09:	48 89 c8             	mov    %rcx,%rax
  401c0c:	48 c1 f8 3f          	sar    $0x3f,%rax
  401c10:	48 29 c2             	sub    %rax,%rdx
  401c13:	48 8d 04 92          	lea    (%rdx,%rdx,4),%rax
  401c17:	48 8d 04 80          	lea    (%rax,%rax,4),%rax
  401c1b:	48 c1 e0 02          	shl    $0x2,%rax
  401c1f:	48 29 c1             	sub    %rax,%rcx
  401c22:	4c 8d 24 0c          	lea    (%rsp,%rcx,1),%r12
  401c26:	89 ea                	mov    %ebp,%edx
  401c28:	48 8d 35 b9 16 00 00 	lea    0x16b9(%rip),%rsi        # 4032e8 <_IO_stdin_used+0x2e8>
  401c2f:	4c 89 e7             	mov    %r12,%rdi
  401c32:	b8 00 00 00 00       	mov    $0x0,%eax
  401c37:	e8 b4 f5 ff ff       	call   4011f0 <sprintf@plt>
  401c3c:	ba 09 00 00 00       	mov    $0x9,%edx
  401c41:	4c 89 e6             	mov    %r12,%rsi
  401c44:	48 89 df             	mov    %rbx,%rdi
  401c47:	e8 14 f4 ff ff       	call   401060 <strncmp@plt>
  401c4c:	85 c0                	test   %eax,%eax
  401c4e:	0f 94 c0             	sete   %al
  401c51:	0f b6 c0             	movzbl %al,%eax
  401c54:	48 83 c4 70          	add    $0x70,%rsp
  401c58:	5b                   	pop    %rbx
  401c59:	5d                   	pop    %rbp
  401c5a:	41 5c                	pop    %r12
  401c5c:	c3                   	ret    

0000000000401c5d <touch3>:
  401c5d:	53                   	push   %rbx
  401c5e:	48 89 fb             	mov    %rdi,%rbx
  401c61:	c7 05 b9 38 00 00 03 	movl   $0x3,0x38b9(%rip)        # 405524 <vlevel>
  401c68:	00 00 00 
  401c6b:	48 89 fe             	mov    %rdi,%rsi
  401c6e:	8b 3d b8 38 00 00    	mov    0x38b8(%rip),%edi        # 40552c <cookie>
  401c74:	e8 67 ff ff ff       	call   401be0 <hexmatch>
  401c79:	85 c0                	test   %eax,%eax
  401c7b:	74 28                	je     401ca5 <touch3+0x48>
  401c7d:	48 89 de             	mov    %rbx,%rsi
  401c80:	48 8d 3d b9 16 00 00 	lea    0x16b9(%rip),%rdi        # 403340 <_IO_stdin_used+0x340>
  401c87:	b8 00 00 00 00       	mov    $0x0,%eax
  401c8c:	e8 2f f4 ff ff       	call   4010c0 <printf@plt>
  401c91:	bf 03 00 00 00       	mov    $0x3,%edi
  401c96:	e8 05 03 00 00       	call   401fa0 <validate>
  401c9b:	bf 00 00 00 00       	mov    $0x0,%edi
  401ca0:	e8 5b f5 ff ff       	call   401200 <exit@plt>
  401ca5:	48 89 de             	mov    %rbx,%rsi
  401ca8:	48 8d 3d b9 16 00 00 	lea    0x16b9(%rip),%rdi        # 403368 <_IO_stdin_used+0x368>
  401caf:	b8 00 00 00 00       	mov    $0x0,%eax
  401cb4:	e8 07 f4 ff ff       	call   4010c0 <printf@plt>
  401cb9:	bf 03 00 00 00       	mov    $0x3,%edi
  401cbe:	e8 9b 03 00 00       	call   40205e <fail>
  401cc3:	eb d6                	jmp    401c9b <touch3+0x3e>

0000000000401cc5 <test>:
  401cc5:	48 83 ec 08          	sub    $0x8,%rsp
  401cc9:	b8 00 00 00 00       	mov    $0x0,%eax
  401cce:	e8 6f fe ff ff       	call   401b42 <getbuf>
  401cd3:	89 c6                	mov    %eax,%esi
  401cd5:	48 8d 3d b4 16 00 00 	lea    0x16b4(%rip),%rdi        # 403390 <_IO_stdin_used+0x390>
  401cdc:	b8 00 00 00 00       	mov    $0x0,%eax
  401ce1:	e8 da f3 ff ff       	call   4010c0 <printf@plt>
  401ce6:	48 83 c4 08          	add    $0x8,%rsp
  401cea:	c3                   	ret    

0000000000401ceb <save_char>:
  401ceb:	8b 05 53 44 00 00    	mov    0x4453(%rip),%eax        # 406144 <gets_cnt>
  401cf1:	3d ff 03 00 00       	cmp    $0x3ff,%eax
  401cf6:	7f 4a                	jg     401d42 <save_char+0x57>
  401cf8:	89 f9                	mov    %edi,%ecx
  401cfa:	c0 e9 04             	shr    $0x4,%cl
  401cfd:	8d 14 40             	lea    (%rax,%rax,2),%edx
  401d00:	4c 8d 05 a9 19 00 00 	lea    0x19a9(%rip),%r8        # 4036b0 <trans_char>
  401d07:	83 e1 0f             	and    $0xf,%ecx
  401d0a:	45 0f b6 0c 08       	movzbl (%r8,%rcx,1),%r9d
  401d0f:	48 8d 0d 2a 38 00 00 	lea    0x382a(%rip),%rcx        # 405540 <gets_buf>
  401d16:	48 63 f2             	movslq %edx,%rsi
  401d19:	44 88 0c 31          	mov    %r9b,(%rcx,%rsi,1)
  401d1d:	8d 72 01             	lea    0x1(%rdx),%esi
  401d20:	83 e7 0f             	and    $0xf,%edi
  401d23:	41 0f b6 3c 38       	movzbl (%r8,%rdi,1),%edi
  401d28:	48 63 f6             	movslq %esi,%rsi
  401d2b:	40 88 3c 31          	mov    %dil,(%rcx,%rsi,1)
  401d2f:	83 c2 02             	add    $0x2,%edx
  401d32:	48 63 d2             	movslq %edx,%rdx
  401d35:	c6 04 11 20          	movb   $0x20,(%rcx,%rdx,1)
  401d39:	83 c0 01             	add    $0x1,%eax
  401d3c:	89 05 02 44 00 00    	mov    %eax,0x4402(%rip)        # 406144 <gets_cnt>
  401d42:	c3                   	ret    

0000000000401d43 <save_term>:
  401d43:	8b 05 fb 43 00 00    	mov    0x43fb(%rip),%eax        # 406144 <gets_cnt>
  401d49:	8d 04 40             	lea    (%rax,%rax,2),%eax
  401d4c:	48 98                	cltq   
  401d4e:	48 8d 15 eb 37 00 00 	lea    0x37eb(%rip),%rdx        # 405540 <gets_buf>
  401d55:	c6 04 02 00          	movb   $0x0,(%rdx,%rax,1)
  401d59:	c3                   	ret    

0000000000401d5a <check_fail>:
  401d5a:	48 83 ec 08          	sub    $0x8,%rsp
  401d5e:	0f be 35 84 37 00 00 	movsbl 0x3784(%rip),%esi        # 4054e9 <target_prefix>
  401d65:	48 8d 0d d4 37 00 00 	lea    0x37d4(%rip),%rcx        # 405540 <gets_buf>
  401d6c:	8b 15 ae 37 00 00    	mov    0x37ae(%rip),%edx        # 405520 <check_level>
  401d72:	48 8d 3d 3a 16 00 00 	lea    0x163a(%rip),%rdi        # 4033b3 <_IO_stdin_used+0x3b3>
  401d79:	b8 00 00 00 00       	mov    $0x0,%eax
  401d7e:	e8 3d f3 ff ff       	call   4010c0 <printf@plt>
  401d83:	bf 01 00 00 00       	mov    $0x1,%edi
  401d88:	e8 73 f4 ff ff       	call   401200 <exit@plt>

0000000000401d8d <Gets>:
  401d8d:	41 54                	push   %r12
  401d8f:	55                   	push   %rbp
  401d90:	53                   	push   %rbx
  401d91:	49 89 fc             	mov    %rdi,%r12
  401d94:	c7 05 a6 43 00 00 00 	movl   $0x0,0x43a6(%rip)        # 406144 <gets_cnt>
  401d9b:	00 00 00 
  401d9e:	48 89 fb             	mov    %rdi,%rbx
  401da1:	eb 11                	jmp    401db4 <Gets+0x27>
  401da3:	48 8d 6b 01          	lea    0x1(%rbx),%rbp
  401da7:	88 03                	mov    %al,(%rbx)
  401da9:	0f b6 f8             	movzbl %al,%edi
  401dac:	e8 3a ff ff ff       	call   401ceb <save_char>
  401db1:	48 89 eb             	mov    %rbp,%rbx
  401db4:	48 8b 3d 5d 37 00 00 	mov    0x375d(%rip),%rdi        # 405518 <infile>
  401dbb:	e8 60 f4 ff ff       	call   401220 <getc@plt>
  401dc0:	83 f8 ff             	cmp    $0xffffffff,%eax
  401dc3:	74 05                	je     401dca <Gets+0x3d>
  401dc5:	83 f8 0a             	cmp    $0xa,%eax
  401dc8:	75 d9                	jne    401da3 <Gets+0x16>
  401dca:	c6 03 00             	movb   $0x0,(%rbx)
  401dcd:	b8 00 00 00 00       	mov    $0x0,%eax
  401dd2:	e8 6c ff ff ff       	call   401d43 <save_term>
  401dd7:	4c 89 e0             	mov    %r12,%rax
  401dda:	5b                   	pop    %rbx
  401ddb:	5d                   	pop    %rbp
  401ddc:	41 5c                	pop    %r12
  401dde:	c3                   	ret    

0000000000401ddf <notify_server>:
  401ddf:	83 3d 4a 37 00 00 00 	cmpl   $0x0,0x374a(%rip)        # 405530 <is_checker>
  401de6:	0f 85 b3 01 00 00    	jne    401f9f <notify_server+0x1c0>
  401dec:	55                   	push   %rbp
  401ded:	53                   	push   %rbx
  401dee:	48 81 ec 08 40 00 00 	sub    $0x4008,%rsp
  401df5:	89 fb                	mov    %edi,%ebx
  401df7:	81 3d 43 43 00 00 9c 	cmpl   $0x1f9c,0x4343(%rip)        # 406144 <gets_cnt>
  401dfe:	1f 00 00 
  401e01:	0f 8f b8 00 00 00    	jg     401ebf <notify_server+0xe0>
  401e07:	44 0f be 0d da 36 00 	movsbl 0x36da(%rip),%r9d        # 4054e9 <target_prefix>
  401e0e:	00 
  401e0f:	83 3d 72 36 00 00 00 	cmpl   $0x0,0x3672(%rip)        # 405488 <notify>
  401e16:	0f 84 be 00 00 00    	je     401eda <notify_server+0xfb>
  401e1c:	44 8b 05 05 37 00 00 	mov    0x3705(%rip),%r8d        # 405528 <authkey>
  401e23:	85 db                	test   %ebx,%ebx
  401e25:	0f 84 ba 00 00 00    	je     401ee5 <notify_server+0x106>
  401e2b:	48 8d 2d 9c 15 00 00 	lea    0x159c(%rip),%rbp        # 4033ce <_IO_stdin_used+0x3ce>
  401e32:	48 8d bc 24 00 20 00 	lea    0x2000(%rsp),%rdi
  401e39:	00 
  401e3a:	48 8d 05 ff 36 00 00 	lea    0x36ff(%rip),%rax        # 405540 <gets_buf>
  401e41:	50                   	push   %rax
  401e42:	56                   	push   %rsi
  401e43:	48 89 e9             	mov    %rbp,%rcx
  401e46:	8b 15 e4 32 00 00    	mov    0x32e4(%rip),%edx        # 405130 <target_id>
  401e4c:	48 8d 35 80 15 00 00 	lea    0x1580(%rip),%rsi        # 4033d3 <_IO_stdin_used+0x3d3>
  401e53:	b8 00 00 00 00       	mov    $0x0,%eax
  401e58:	e8 93 f3 ff ff       	call   4011f0 <sprintf@plt>
  401e5d:	48 83 c4 10          	add    $0x10,%rsp
  401e61:	83 3d 20 36 00 00 00 	cmpl   $0x0,0x3620(%rip)        # 405488 <notify>
  401e68:	0f 84 b7 00 00 00    	je     401f25 <notify_server+0x146>
  401e6e:	85 db                	test   %ebx,%ebx
  401e70:	0f 84 99 00 00 00    	je     401f0f <notify_server+0x130>
  401e76:	48 8d 8c 24 00 20 00 	lea    0x2000(%rsp),%rcx
  401e7d:	00 
  401e7e:	49 89 e1             	mov    %rsp,%r9
  401e81:	41 b8 00 00 00 00    	mov    $0x0,%r8d
  401e87:	48 8b 15 ba 32 00 00 	mov    0x32ba(%rip),%rdx        # 405148 <lab>
  401e8e:	48 8b 35 eb 35 00 00 	mov    0x35eb(%rip),%rsi        # 405480 <course>
  401e95:	48 8b 3d a4 32 00 00 	mov    0x32a4(%rip),%rdi        # 405140 <user_id>
  401e9c:	e8 20 10 00 00       	call   402ec1 <driver_post>
  401ea1:	85 c0                	test   %eax,%eax
  401ea3:	78 4c                	js     401ef1 <notify_server+0x112>
  401ea5:	48 8d 3d 6c 16 00 00 	lea    0x166c(%rip),%rdi        # 403518 <_IO_stdin_used+0x518>
  401eac:	e8 cf f1 ff ff       	call   401080 <puts@plt>
  401eb1:	48 8d 3d 43 15 00 00 	lea    0x1543(%rip),%rdi        # 4033fb <_IO_stdin_used+0x3fb>
  401eb8:	e8 c3 f1 ff ff       	call   401080 <puts@plt>
  401ebd:	eb 5c                	jmp    401f1b <notify_server+0x13c>
  401ebf:	48 8d 3d 22 16 00 00 	lea    0x1622(%rip),%rdi        # 4034e8 <_IO_stdin_used+0x4e8>
  401ec6:	b8 00 00 00 00       	mov    $0x0,%eax
  401ecb:	e8 f0 f1 ff ff       	call   4010c0 <printf@plt>
  401ed0:	bf 01 00 00 00       	mov    $0x1,%edi
  401ed5:	e8 26 f3 ff ff       	call   401200 <exit@plt>
  401eda:	41 b8 ff ff ff ff    	mov    $0xffffffff,%r8d
  401ee0:	e9 3e ff ff ff       	jmp    401e23 <notify_server+0x44>
  401ee5:	48 8d 2d dd 14 00 00 	lea    0x14dd(%rip),%rbp        # 4033c9 <_IO_stdin_used+0x3c9>
  401eec:	e9 41 ff ff ff       	jmp    401e32 <notify_server+0x53>
  401ef1:	48 89 e6             	mov    %rsp,%rsi
  401ef4:	48 8d 3d f4 14 00 00 	lea    0x14f4(%rip),%rdi        # 4033ef <_IO_stdin_used+0x3ef>
  401efb:	b8 00 00 00 00       	mov    $0x0,%eax
  401f00:	e8 bb f1 ff ff       	call   4010c0 <printf@plt>
  401f05:	bf 01 00 00 00       	mov    $0x1,%edi
  401f0a:	e8 f1 f2 ff ff       	call   401200 <exit@plt>
  401f0f:	48 8d 3d ef 14 00 00 	lea    0x14ef(%rip),%rdi        # 403405 <_IO_stdin_used+0x405>
  401f16:	e8 65 f1 ff ff       	call   401080 <puts@plt>
  401f1b:	48 81 c4 08 40 00 00 	add    $0x4008,%rsp
  401f22:	5b                   	pop    %rbx
  401f23:	5d                   	pop    %rbp
  401f24:	c3                   	ret    
  401f25:	48 89 ee             	mov    %rbp,%rsi
  401f28:	48 8d 3d 21 16 00 00 	lea    0x1621(%rip),%rdi        # 403550 <_IO_stdin_used+0x550>
  401f2f:	b8 00 00 00 00       	mov    $0x0,%eax
  401f34:	e8 87 f1 ff ff       	call   4010c0 <printf@plt>
  401f39:	48 8b 35 00 32 00 00 	mov    0x3200(%rip),%rsi        # 405140 <user_id>
  401f40:	48 8d 3d c5 14 00 00 	lea    0x14c5(%rip),%rdi        # 40340c <_IO_stdin_used+0x40c>
  401f47:	b8 00 00 00 00       	mov    $0x0,%eax
  401f4c:	e8 6f f1 ff ff       	call   4010c0 <printf@plt>
  401f51:	48 8b 35 28 35 00 00 	mov    0x3528(%rip),%rsi        # 405480 <course>
  401f58:	48 8d 3d ba 14 00 00 	lea    0x14ba(%rip),%rdi        # 403419 <_IO_stdin_used+0x419>
  401f5f:	b8 00 00 00 00       	mov    $0x0,%eax
  401f64:	e8 57 f1 ff ff       	call   4010c0 <printf@plt>
  401f69:	48 8b 35 d8 31 00 00 	mov    0x31d8(%rip),%rsi        # 405148 <lab>
  401f70:	48 8d 3d ae 14 00 00 	lea    0x14ae(%rip),%rdi        # 403425 <_IO_stdin_used+0x425>
  401f77:	b8 00 00 00 00       	mov    $0x0,%eax
  401f7c:	e8 3f f1 ff ff       	call   4010c0 <printf@plt>
  401f81:	48 8d b4 24 00 20 00 	lea    0x2000(%rsp),%rsi
  401f88:	00 
  401f89:	48 8d 3d 9e 14 00 00 	lea    0x149e(%rip),%rdi        # 40342e <_IO_stdin_used+0x42e>
  401f90:	b8 00 00 00 00       	mov    $0x0,%eax
  401f95:	e8 26 f1 ff ff       	call   4010c0 <printf@plt>
  401f9a:	e9 7c ff ff ff       	jmp    401f1b <notify_server+0x13c>
  401f9f:	c3                   	ret    

0000000000401fa0 <validate>:
  401fa0:	53                   	push   %rbx
  401fa1:	89 fb                	mov    %edi,%ebx
  401fa3:	83 3d 86 35 00 00 00 	cmpl   $0x0,0x3586(%rip)        # 405530 <is_checker>
  401faa:	74 68                	je     402014 <validate+0x74>
  401fac:	39 3d 72 35 00 00    	cmp    %edi,0x3572(%rip)        # 405524 <vlevel>
  401fb2:	75 2d                	jne    401fe1 <validate+0x41>
  401fb4:	8b 35 66 35 00 00    	mov    0x3566(%rip),%esi        # 405520 <check_level>
  401fba:	39 fe                	cmp    %edi,%esi
  401fbc:	75 39                	jne    401ff7 <validate+0x57>
  401fbe:	0f be 35 24 35 00 00 	movsbl 0x3524(%rip),%esi        # 4054e9 <target_prefix>
  401fc5:	48 8d 0d 74 35 00 00 	lea    0x3574(%rip),%rcx        # 405540 <gets_buf>
  401fcc:	89 fa                	mov    %edi,%edx
  401fce:	48 8d 3d 83 14 00 00 	lea    0x1483(%rip),%rdi        # 403458 <_IO_stdin_used+0x458>
  401fd5:	b8 00 00 00 00       	mov    $0x0,%eax
  401fda:	e8 e1 f0 ff ff       	call   4010c0 <printf@plt>
  401fdf:	5b                   	pop    %rbx
  401fe0:	c3                   	ret    
  401fe1:	48 8d 3d 52 14 00 00 	lea    0x1452(%rip),%rdi        # 40343a <_IO_stdin_used+0x43a>
  401fe8:	e8 93 f0 ff ff       	call   401080 <puts@plt>
  401fed:	b8 00 00 00 00       	mov    $0x0,%eax
  401ff2:	e8 63 fd ff ff       	call   401d5a <check_fail>
  401ff7:	89 fa                	mov    %edi,%edx
  401ff9:	48 8d 3d 78 15 00 00 	lea    0x1578(%rip),%rdi        # 403578 <_IO_stdin_used+0x578>
  402000:	b8 00 00 00 00       	mov    $0x0,%eax
  402005:	e8 b6 f0 ff ff       	call   4010c0 <printf@plt>
  40200a:	b8 00 00 00 00       	mov    $0x0,%eax
  40200f:	e8 46 fd ff ff       	call   401d5a <check_fail>
  402014:	39 3d 0a 35 00 00    	cmp    %edi,0x350a(%rip)        # 405524 <vlevel>
  40201a:	74 1a                	je     402036 <validate+0x96>
  40201c:	48 8d 3d 17 14 00 00 	lea    0x1417(%rip),%rdi        # 40343a <_IO_stdin_used+0x43a>
  402023:	e8 58 f0 ff ff       	call   401080 <puts@plt>
  402028:	89 de                	mov    %ebx,%esi
  40202a:	bf 00 00 00 00       	mov    $0x0,%edi
  40202f:	e8 ab fd ff ff       	call   401ddf <notify_server>
  402034:	eb a9                	jmp    401fdf <validate+0x3f>
  402036:	0f be 15 ac 34 00 00 	movsbl 0x34ac(%rip),%edx        # 4054e9 <target_prefix>
  40203d:	89 fe                	mov    %edi,%esi
  40203f:	48 8d 3d 5a 15 00 00 	lea    0x155a(%rip),%rdi        # 4035a0 <_IO_stdin_used+0x5a0>
  402046:	b8 00 00 00 00       	mov    $0x0,%eax
  40204b:	e8 70 f0 ff ff       	call   4010c0 <printf@plt>
  402050:	89 de                	mov    %ebx,%esi
  402052:	bf 01 00 00 00       	mov    $0x1,%edi
  402057:	e8 83 fd ff ff       	call   401ddf <notify_server>
  40205c:	eb 81                	jmp    401fdf <validate+0x3f>

000000000040205e <fail>:
  40205e:	48 83 ec 08          	sub    $0x8,%rsp
  402062:	83 3d c7 34 00 00 00 	cmpl   $0x0,0x34c7(%rip)        # 405530 <is_checker>
  402069:	75 11                	jne    40207c <fail+0x1e>
  40206b:	89 fe                	mov    %edi,%esi
  40206d:	bf 00 00 00 00       	mov    $0x0,%edi
  402072:	e8 68 fd ff ff       	call   401ddf <notify_server>
  402077:	48 83 c4 08          	add    $0x8,%rsp
  40207b:	c3                   	ret    
  40207c:	b8 00 00 00 00       	mov    $0x0,%eax
  402081:	e8 d4 fc ff ff       	call   401d5a <check_fail>

0000000000402086 <bushandler>:
  402086:	48 83 ec 08          	sub    $0x8,%rsp
  40208a:	83 3d 9f 34 00 00 00 	cmpl   $0x0,0x349f(%rip)        # 405530 <is_checker>
  402091:	74 16                	je     4020a9 <bushandler+0x23>
  402093:	48 8d 3d d3 13 00 00 	lea    0x13d3(%rip),%rdi        # 40346d <_IO_stdin_used+0x46d>
  40209a:	e8 e1 ef ff ff       	call   401080 <puts@plt>
  40209f:	b8 00 00 00 00       	mov    $0x0,%eax
  4020a4:	e8 b1 fc ff ff       	call   401d5a <check_fail>
  4020a9:	48 8d 3d 28 15 00 00 	lea    0x1528(%rip),%rdi        # 4035d8 <_IO_stdin_used+0x5d8>
  4020b0:	e8 cb ef ff ff       	call   401080 <puts@plt>
  4020b5:	48 8d 3d bb 13 00 00 	lea    0x13bb(%rip),%rdi        # 403477 <_IO_stdin_used+0x477>
  4020bc:	e8 bf ef ff ff       	call   401080 <puts@plt>
  4020c1:	be 00 00 00 00       	mov    $0x0,%esi
  4020c6:	bf 00 00 00 00       	mov    $0x0,%edi
  4020cb:	e8 0f fd ff ff       	call   401ddf <notify_server>
  4020d0:	bf 01 00 00 00       	mov    $0x1,%edi
  4020d5:	e8 26 f1 ff ff       	call   401200 <exit@plt>

00000000004020da <seghandler>:
  4020da:	48 83 ec 08          	sub    $0x8,%rsp
  4020de:	83 3d 4b 34 00 00 00 	cmpl   $0x0,0x344b(%rip)        # 405530 <is_checker>
  4020e5:	74 16                	je     4020fd <seghandler+0x23>
  4020e7:	48 8d 3d 9f 13 00 00 	lea    0x139f(%rip),%rdi        # 40348d <_IO_stdin_used+0x48d>
  4020ee:	e8 8d ef ff ff       	call   401080 <puts@plt>
  4020f3:	b8 00 00 00 00       	mov    $0x0,%eax
  4020f8:	e8 5d fc ff ff       	call   401d5a <check_fail>
  4020fd:	48 8d 3d f4 14 00 00 	lea    0x14f4(%rip),%rdi        # 4035f8 <_IO_stdin_used+0x5f8>
  402104:	e8 77 ef ff ff       	call   401080 <puts@plt>
  402109:	48 8d 3d 67 13 00 00 	lea    0x1367(%rip),%rdi        # 403477 <_IO_stdin_used+0x477>
  402110:	e8 6b ef ff ff       	call   401080 <puts@plt>
  402115:	be 00 00 00 00       	mov    $0x0,%esi
  40211a:	bf 00 00 00 00       	mov    $0x0,%edi
  40211f:	e8 bb fc ff ff       	call   401ddf <notify_server>
  402124:	bf 01 00 00 00       	mov    $0x1,%edi
  402129:	e8 d2 f0 ff ff       	call   401200 <exit@plt>

000000000040212e <illegalhandler>:
  40212e:	48 83 ec 08          	sub    $0x8,%rsp
  402132:	83 3d f7 33 00 00 00 	cmpl   $0x0,0x33f7(%rip)        # 405530 <is_checker>
  402139:	74 16                	je     402151 <illegalhandler+0x23>
  40213b:	48 8d 3d 5e 13 00 00 	lea    0x135e(%rip),%rdi        # 4034a0 <_IO_stdin_used+0x4a0>
  402142:	e8 39 ef ff ff       	call   401080 <puts@plt>
  402147:	b8 00 00 00 00       	mov    $0x0,%eax
  40214c:	e8 09 fc ff ff       	call   401d5a <check_fail>
  402151:	48 8d 3d c8 14 00 00 	lea    0x14c8(%rip),%rdi        # 403620 <_IO_stdin_used+0x620>
  402158:	e8 23 ef ff ff       	call   401080 <puts@plt>
  40215d:	48 8d 3d 13 13 00 00 	lea    0x1313(%rip),%rdi        # 403477 <_IO_stdin_used+0x477>
  402164:	e8 17 ef ff ff       	call   401080 <puts@plt>
  402169:	be 00 00 00 00       	mov    $0x0,%esi
  40216e:	bf 00 00 00 00       	mov    $0x0,%edi
  402173:	e8 67 fc ff ff       	call   401ddf <notify_server>
  402178:	bf 01 00 00 00       	mov    $0x1,%edi
  40217d:	e8 7e f0 ff ff       	call   401200 <exit@plt>

0000000000402182 <sigalrmhandler>:
  402182:	48 83 ec 08          	sub    $0x8,%rsp
  402186:	83 3d a3 33 00 00 00 	cmpl   $0x0,0x33a3(%rip)        # 405530 <is_checker>
  40218d:	74 16                	je     4021a5 <sigalrmhandler+0x23>
  40218f:	48 8d 3d 1e 13 00 00 	lea    0x131e(%rip),%rdi        # 4034b4 <_IO_stdin_used+0x4b4>
  402196:	e8 e5 ee ff ff       	call   401080 <puts@plt>
  40219b:	b8 00 00 00 00       	mov    $0x0,%eax
  4021a0:	e8 b5 fb ff ff       	call   401d5a <check_fail>
  4021a5:	be 05 00 00 00       	mov    $0x5,%esi
  4021aa:	48 8d 3d 9f 14 00 00 	lea    0x149f(%rip),%rdi        # 403650 <_IO_stdin_used+0x650>
  4021b1:	b8 00 00 00 00       	mov    $0x0,%eax
  4021b6:	e8 05 ef ff ff       	call   4010c0 <printf@plt>
  4021bb:	be 00 00 00 00       	mov    $0x0,%esi
  4021c0:	bf 00 00 00 00       	mov    $0x0,%edi
  4021c5:	e8 15 fc ff ff       	call   401ddf <notify_server>
  4021ca:	bf 01 00 00 00       	mov    $0x1,%edi
  4021cf:	e8 2c f0 ff ff       	call   401200 <exit@plt>

00000000004021d4 <launch>:
  4021d4:	55                   	push   %rbp
  4021d5:	48 89 e5             	mov    %rsp,%rbp
  4021d8:	48 89 fa             	mov    %rdi,%rdx
  4021db:	48 8d 47 17          	lea    0x17(%rdi),%rax
  4021df:	48 83 e0 f0          	and    $0xfffffffffffffff0,%rax
  4021e3:	48 29 c4             	sub    %rax,%rsp
  4021e6:	48 8d 7c 24 0f       	lea    0xf(%rsp),%rdi
  4021eb:	48 83 e7 f0          	and    $0xfffffffffffffff0,%rdi
  4021ef:	be f4 00 00 00       	mov    $0xf4,%esi
  4021f4:	e8 d7 ee ff ff       	call   4010d0 <memset@plt>
  4021f9:	48 8b 05 a0 32 00 00 	mov    0x32a0(%rip),%rax        # 4054a0 <stdin@GLIBC_2.2.5>
  402200:	48 39 05 11 33 00 00 	cmp    %rax,0x3311(%rip)        # 405518 <infile>
  402207:	74 2b                	je     402234 <launch+0x60>
  402209:	c7 05 11 33 00 00 00 	movl   $0x0,0x3311(%rip)        # 405524 <vlevel>
  402210:	00 00 00 
  402213:	b8 00 00 00 00       	mov    $0x0,%eax
  402218:	e8 a8 fa ff ff       	call   401cc5 <test>
  40221d:	83 3d 0c 33 00 00 00 	cmpl   $0x0,0x330c(%rip)        # 405530 <is_checker>
  402224:	75 21                	jne    402247 <launch+0x73>
  402226:	48 8d 3d a7 12 00 00 	lea    0x12a7(%rip),%rdi        # 4034d4 <_IO_stdin_used+0x4d4>
  40222d:	e8 4e ee ff ff       	call   401080 <puts@plt>
  402232:	c9                   	leave  
  402233:	c3                   	ret    
  402234:	48 8d 3d 81 12 00 00 	lea    0x1281(%rip),%rdi        # 4034bc <_IO_stdin_used+0x4bc>
  40223b:	b8 00 00 00 00       	mov    $0x0,%eax
  402240:	e8 7b ee ff ff       	call   4010c0 <printf@plt>
  402245:	eb c2                	jmp    402209 <launch+0x35>
  402247:	48 8d 3d 7b 12 00 00 	lea    0x127b(%rip),%rdi        # 4034c9 <_IO_stdin_used+0x4c9>
  40224e:	e8 2d ee ff ff       	call   401080 <puts@plt>
  402253:	b8 00 00 00 00       	mov    $0x0,%eax
  402258:	e8 fd fa ff ff       	call   401d5a <check_fail>

000000000040225d <stable_launch>:
  40225d:	53                   	push   %rbx
  40225e:	48 89 3d ab 32 00 00 	mov    %rdi,0x32ab(%rip)        # 405510 <global_offset>
  402265:	41 b9 00 00 00 00    	mov    $0x0,%r9d
  40226b:	41 b8 00 00 00 00    	mov    $0x0,%r8d
  402271:	b9 32 01 00 00       	mov    $0x132,%ecx
  402276:	ba 07 00 00 00       	mov    $0x7,%edx
  40227b:	be 00 00 10 00       	mov    $0x100000,%esi
  402280:	bf 00 60 58 55       	mov    $0x55586000,%edi
  402285:	e8 26 ee ff ff       	call   4010b0 <mmap@plt>
  40228a:	48 89 c3             	mov    %rax,%rbx
  40228d:	48 3d 00 60 58 55    	cmp    $0x55586000,%rax
  402293:	75 43                	jne    4022d8 <stable_launch+0x7b>
  402295:	48 8d 90 f8 ff 0f 00 	lea    0xffff8(%rax),%rdx
  40229c:	48 89 15 65 32 00 00 	mov    %rdx,0x3265(%rip)        # 405508 <stack_top>
  4022a3:	48 89 e0             	mov    %rsp,%rax
  4022a6:	48 89 d4             	mov    %rdx,%rsp
  4022a9:	48 89 c2             	mov    %rax,%rdx
  4022ac:	48 89 15 4d 32 00 00 	mov    %rdx,0x324d(%rip)        # 405500 <global_save_stack>
  4022b3:	48 8b 3d 56 32 00 00 	mov    0x3256(%rip),%rdi        # 405510 <global_offset>
  4022ba:	e8 15 ff ff ff       	call   4021d4 <launch>
  4022bf:	48 8b 05 3a 32 00 00 	mov    0x323a(%rip),%rax        # 405500 <global_save_stack>
  4022c6:	48 89 c4             	mov    %rax,%rsp
  4022c9:	be 00 00 10 00       	mov    $0x100000,%esi
  4022ce:	48 89 df             	mov    %rbx,%rdi
  4022d1:	e8 ba ee ff ff       	call   401190 <munmap@plt>
  4022d6:	5b                   	pop    %rbx
  4022d7:	c3                   	ret    
  4022d8:	be 00 00 10 00       	mov    $0x100000,%esi
  4022dd:	48 89 c7             	mov    %rax,%rdi
  4022e0:	e8 ab ee ff ff       	call   401190 <munmap@plt>
  4022e5:	ba 00 60 58 55       	mov    $0x55586000,%edx
  4022ea:	48 8d 35 97 13 00 00 	lea    0x1397(%rip),%rsi        # 403688 <_IO_stdin_used+0x688>
  4022f1:	48 8b 3d e8 31 00 00 	mov    0x31e8(%rip),%rdi        # 4054e0 <stderr@GLIBC_2.2.5>
  4022f8:	b8 00 00 00 00       	mov    $0x0,%eax
  4022fd:	e8 2e ee ff ff       	call   401130 <fprintf@plt>
  402302:	bf 01 00 00 00       	mov    $0x1,%edi
  402307:	e8 f4 ee ff ff       	call   401200 <exit@plt>

000000000040230c <rio_readinitb>:
  40230c:	89 37                	mov    %esi,(%rdi)
  40230e:	c7 47 04 00 00 00 00 	movl   $0x0,0x4(%rdi)
  402315:	48 8d 47 10          	lea    0x10(%rdi),%rax
  402319:	48 89 47 08          	mov    %rax,0x8(%rdi)
  40231d:	c3                   	ret    

000000000040231e <sigalrm_handler>:
  40231e:	48 83 ec 08          	sub    $0x8,%rsp
  402322:	ba 00 00 00 00       	mov    $0x0,%edx
  402327:	48 8d 35 92 13 00 00 	lea    0x1392(%rip),%rsi        # 4036c0 <trans_char+0x10>
  40232e:	48 8b 3d ab 31 00 00 	mov    0x31ab(%rip),%rdi        # 4054e0 <stderr@GLIBC_2.2.5>
  402335:	b8 00 00 00 00       	mov    $0x0,%eax
  40233a:	e8 f1 ed ff ff       	call   401130 <fprintf@plt>
  40233f:	bf 01 00 00 00       	mov    $0x1,%edi
  402344:	e8 b7 ee ff ff       	call   401200 <exit@plt>

0000000000402349 <urlencode>:
  402349:	41 54                	push   %r12
  40234b:	55                   	push   %rbp
  40234c:	53                   	push   %rbx
  40234d:	48 83 ec 10          	sub    $0x10,%rsp
  402351:	48 89 fb             	mov    %rdi,%rbx
  402354:	48 89 f5             	mov    %rsi,%rbp
  402357:	e8 44 ed ff ff       	call   4010a0 <strlen@plt>
  40235c:	eb 0e                	jmp    40236c <urlencode+0x23>
  40235e:	88 55 00             	mov    %dl,0x0(%rbp)
  402361:	48 8d 6d 01          	lea    0x1(%rbp),%rbp
  402365:	48 83 c3 01          	add    $0x1,%rbx
  402369:	44 89 e0             	mov    %r12d,%eax
  40236c:	44 8d 60 ff          	lea    -0x1(%rax),%r12d
  402370:	85 c0                	test   %eax,%eax
  402372:	0f 84 95 00 00 00    	je     40240d <urlencode+0xc4>
  402378:	0f b6 13             	movzbl (%rbx),%edx
  40237b:	80 fa 2a             	cmp    $0x2a,%dl
  40237e:	0f 94 c1             	sete   %cl
  402381:	80 fa 2d             	cmp    $0x2d,%dl
  402384:	0f 94 c0             	sete   %al
  402387:	08 c1                	or     %al,%cl
  402389:	75 d3                	jne    40235e <urlencode+0x15>
  40238b:	80 fa 2e             	cmp    $0x2e,%dl
  40238e:	74 ce                	je     40235e <urlencode+0x15>
  402390:	80 fa 5f             	cmp    $0x5f,%dl
  402393:	74 c9                	je     40235e <urlencode+0x15>
  402395:	8d 42 d0             	lea    -0x30(%rdx),%eax
  402398:	3c 09                	cmp    $0x9,%al
  40239a:	76 c2                	jbe    40235e <urlencode+0x15>
  40239c:	8d 42 bf             	lea    -0x41(%rdx),%eax
  40239f:	3c 19                	cmp    $0x19,%al
  4023a1:	76 bb                	jbe    40235e <urlencode+0x15>
  4023a3:	8d 42 9f             	lea    -0x61(%rdx),%eax
  4023a6:	3c 19                	cmp    $0x19,%al
  4023a8:	76 b4                	jbe    40235e <urlencode+0x15>
  4023aa:	80 fa 20             	cmp    $0x20,%dl
  4023ad:	74 4c                	je     4023fb <urlencode+0xb2>
  4023af:	8d 42 e0             	lea    -0x20(%rdx),%eax
  4023b2:	3c 5f                	cmp    $0x5f,%al
  4023b4:	0f 96 c1             	setbe  %cl
  4023b7:	80 fa 09             	cmp    $0x9,%dl
  4023ba:	0f 94 c0             	sete   %al
  4023bd:	08 c1                	or     %al,%cl
  4023bf:	74 47                	je     402408 <urlencode+0xbf>
  4023c1:	0f b6 d2             	movzbl %dl,%edx
  4023c4:	48 8d 7c 24 08       	lea    0x8(%rsp),%rdi
  4023c9:	48 8d 35 85 13 00 00 	lea    0x1385(%rip),%rsi        # 403755 <trans_char+0xa5>
  4023d0:	b8 00 00 00 00       	mov    $0x0,%eax
  4023d5:	e8 16 ee ff ff       	call   4011f0 <sprintf@plt>
  4023da:	0f b6 44 24 08       	movzbl 0x8(%rsp),%eax
  4023df:	88 45 00             	mov    %al,0x0(%rbp)
  4023e2:	0f b6 44 24 09       	movzbl 0x9(%rsp),%eax
  4023e7:	88 45 01             	mov    %al,0x1(%rbp)
  4023ea:	0f b6 44 24 0a       	movzbl 0xa(%rsp),%eax
  4023ef:	88 45 02             	mov    %al,0x2(%rbp)
  4023f2:	48 8d 6d 03          	lea    0x3(%rbp),%rbp
  4023f6:	e9 6a ff ff ff       	jmp    402365 <urlencode+0x1c>
  4023fb:	c6 45 00 2b          	movb   $0x2b,0x0(%rbp)
  4023ff:	48 8d 6d 01          	lea    0x1(%rbp),%rbp
  402403:	e9 5d ff ff ff       	jmp    402365 <urlencode+0x1c>
  402408:	b8 ff ff ff ff       	mov    $0xffffffff,%eax
  40240d:	48 83 c4 10          	add    $0x10,%rsp
  402411:	5b                   	pop    %rbx
  402412:	5d                   	pop    %rbp
  402413:	41 5c                	pop    %r12
  402415:	c3                   	ret    

0000000000402416 <rio_writen>:
  402416:	41 55                	push   %r13
  402418:	41 54                	push   %r12
  40241a:	55                   	push   %rbp
  40241b:	53                   	push   %rbx
  40241c:	48 83 ec 08          	sub    $0x8,%rsp
  402420:	41 89 fc             	mov    %edi,%r12d
  402423:	48 89 f5             	mov    %rsi,%rbp
  402426:	49 89 d5             	mov    %rdx,%r13
  402429:	48 89 d3             	mov    %rdx,%rbx
  40242c:	eb 06                	jmp    402434 <rio_writen+0x1e>
  40242e:	48 29 c3             	sub    %rax,%rbx
  402431:	48 01 c5             	add    %rax,%rbp
  402434:	48 85 db             	test   %rbx,%rbx
  402437:	74 24                	je     40245d <rio_writen+0x47>
  402439:	48 89 da             	mov    %rbx,%rdx
  40243c:	48 89 ee             	mov    %rbp,%rsi
  40243f:	44 89 e7             	mov    %r12d,%edi
  402442:	e8 49 ec ff ff       	call   401090 <write@plt>
  402447:	48 85 c0             	test   %rax,%rax
  40244a:	7f e2                	jg     40242e <rio_writen+0x18>
  40244c:	e8 ef eb ff ff       	call   401040 <__errno_location@plt>
  402451:	83 38 04             	cmpl   $0x4,(%rax)
  402454:	75 15                	jne    40246b <rio_writen+0x55>
  402456:	b8 00 00 00 00       	mov    $0x0,%eax
  40245b:	eb d1                	jmp    40242e <rio_writen+0x18>
  40245d:	4c 89 e8             	mov    %r13,%rax
  402460:	48 83 c4 08          	add    $0x8,%rsp
  402464:	5b                   	pop    %rbx
  402465:	5d                   	pop    %rbp
  402466:	41 5c                	pop    %r12
  402468:	41 5d                	pop    %r13
  40246a:	c3                   	ret    
  40246b:	48 c7 c0 ff ff ff ff 	mov    $0xffffffffffffffff,%rax
  402472:	eb ec                	jmp    402460 <rio_writen+0x4a>

0000000000402474 <rio_read>:
  402474:	41 55                	push   %r13
  402476:	41 54                	push   %r12
  402478:	55                   	push   %rbp
  402479:	53                   	push   %rbx
  40247a:	48 83 ec 08          	sub    $0x8,%rsp
  40247e:	48 89 fb             	mov    %rdi,%rbx
  402481:	49 89 f5             	mov    %rsi,%r13
  402484:	49 89 d4             	mov    %rdx,%r12
  402487:	eb 0a                	jmp    402493 <rio_read+0x1f>
  402489:	e8 b2 eb ff ff       	call   401040 <__errno_location@plt>
  40248e:	83 38 04             	cmpl   $0x4,(%rax)
  402491:	75 5a                	jne    4024ed <rio_read+0x79>
  402493:	8b 6b 04             	mov    0x4(%rbx),%ebp
  402496:	85 ed                	test   %ebp,%ebp
  402498:	7f 22                	jg     4024bc <rio_read+0x48>
  40249a:	48 8d 6b 10          	lea    0x10(%rbx),%rbp
  40249e:	ba 00 20 00 00       	mov    $0x2000,%edx
  4024a3:	48 89 ee             	mov    %rbp,%rsi
  4024a6:	8b 3b                	mov    (%rbx),%edi
  4024a8:	e8 53 ec ff ff       	call   401100 <read@plt>
  4024ad:	89 43 04             	mov    %eax,0x4(%rbx)
  4024b0:	85 c0                	test   %eax,%eax
  4024b2:	78 d5                	js     402489 <rio_read+0x15>
  4024b4:	74 40                	je     4024f6 <rio_read+0x82>
  4024b6:	48 89 6b 08          	mov    %rbp,0x8(%rbx)
  4024ba:	eb d7                	jmp    402493 <rio_read+0x1f>
  4024bc:	89 e8                	mov    %ebp,%eax
  4024be:	4c 39 e0             	cmp    %r12,%rax
  4024c1:	72 03                	jb     4024c6 <rio_read+0x52>
  4024c3:	44 89 e5             	mov    %r12d,%ebp
  4024c6:	4c 63 e5             	movslq %ebp,%r12
  4024c9:	48 8b 73 08          	mov    0x8(%rbx),%rsi
  4024cd:	4c 89 e2             	mov    %r12,%rdx
  4024d0:	4c 89 ef             	mov    %r13,%rdi
  4024d3:	e8 78 ec ff ff       	call   401150 <memcpy@plt>
  4024d8:	4c 01 63 08          	add    %r12,0x8(%rbx)
  4024dc:	29 6b 04             	sub    %ebp,0x4(%rbx)
  4024df:	4c 89 e0             	mov    %r12,%rax
  4024e2:	48 83 c4 08          	add    $0x8,%rsp
  4024e6:	5b                   	pop    %rbx
  4024e7:	5d                   	pop    %rbp
  4024e8:	41 5c                	pop    %r12
  4024ea:	41 5d                	pop    %r13
  4024ec:	c3                   	ret    
  4024ed:	48 c7 c0 ff ff ff ff 	mov    $0xffffffffffffffff,%rax
  4024f4:	eb ec                	jmp    4024e2 <rio_read+0x6e>
  4024f6:	b8 00 00 00 00       	mov    $0x0,%eax
  4024fb:	eb e5                	jmp    4024e2 <rio_read+0x6e>

00000000004024fd <rio_readlineb>:
  4024fd:	41 55                	push   %r13
  4024ff:	41 54                	push   %r12
  402501:	55                   	push   %rbp
  402502:	53                   	push   %rbx
  402503:	48 83 ec 18          	sub    $0x18,%rsp
  402507:	49 89 fd             	mov    %rdi,%r13
  40250a:	48 89 f5             	mov    %rsi,%rbp
  40250d:	49 89 d4             	mov    %rdx,%r12
  402510:	bb 01 00 00 00       	mov    $0x1,%ebx
  402515:	eb 18                	jmp    40252f <rio_readlineb+0x32>
  402517:	85 c0                	test   %eax,%eax
  402519:	75 55                	jne    402570 <rio_readlineb+0x73>
  40251b:	48 83 fb 01          	cmp    $0x1,%rbx
  40251f:	75 3d                	jne    40255e <rio_readlineb+0x61>
  402521:	b8 00 00 00 00       	mov    $0x0,%eax
  402526:	eb 3d                	jmp    402565 <rio_readlineb+0x68>
  402528:	48 83 c3 01          	add    $0x1,%rbx
  40252c:	48 89 d5             	mov    %rdx,%rbp
  40252f:	4c 39 e3             	cmp    %r12,%rbx
  402532:	73 2a                	jae    40255e <rio_readlineb+0x61>
  402534:	48 8d 74 24 0f       	lea    0xf(%rsp),%rsi
  402539:	ba 01 00 00 00       	mov    $0x1,%edx
  40253e:	4c 89 ef             	mov    %r13,%rdi
  402541:	e8 2e ff ff ff       	call   402474 <rio_read>
  402546:	83 f8 01             	cmp    $0x1,%eax
  402549:	75 cc                	jne    402517 <rio_readlineb+0x1a>
  40254b:	48 8d 55 01          	lea    0x1(%rbp),%rdx
  40254f:	0f b6 44 24 0f       	movzbl 0xf(%rsp),%eax
  402554:	88 45 00             	mov    %al,0x0(%rbp)
  402557:	3c 0a                	cmp    $0xa,%al
  402559:	75 cd                	jne    402528 <rio_readlineb+0x2b>
  40255b:	48 89 d5             	mov    %rdx,%rbp
  40255e:	c6 45 00 00          	movb   $0x0,0x0(%rbp)
  402562:	48 89 d8             	mov    %rbx,%rax
  402565:	48 83 c4 18          	add    $0x18,%rsp
  402569:	5b                   	pop    %rbx
  40256a:	5d                   	pop    %rbp
  40256b:	41 5c                	pop    %r12
  40256d:	41 5d                	pop    %r13
  40256f:	c3                   	ret    
  402570:	48 c7 c0 ff ff ff ff 	mov    $0xffffffffffffffff,%rax
  402577:	eb ec                	jmp    402565 <rio_readlineb+0x68>

0000000000402579 <submitr>:
  402579:	41 57                	push   %r15
  40257b:	41 56                	push   %r14
  40257d:	41 55                	push   %r13
  40257f:	41 54                	push   %r12
  402581:	55                   	push   %rbp
  402582:	53                   	push   %rbx
  402583:	48 81 ec 58 a0 00 00 	sub    $0xa058,%rsp
  40258a:	49 89 fc             	mov    %rdi,%r12
  40258d:	89 74 24 10          	mov    %esi,0x10(%rsp)
  402591:	49 89 d6             	mov    %rdx,%r14
  402594:	48 89 4c 24 08       	mov    %rcx,0x8(%rsp)
  402599:	4c 89 44 24 18       	mov    %r8,0x18(%rsp)
  40259e:	4d 89 cd             	mov    %r9,%r13
  4025a1:	48 8b ac 24 90 a0 00 	mov    0xa090(%rsp),%rbp
  4025a8:	00 
  4025a9:	c7 84 24 2c 20 00 00 	movl   $0x0,0x202c(%rsp)
  4025b0:	00 00 00 00 
  4025b4:	ba 00 00 00 00       	mov    $0x0,%edx
  4025b9:	be 01 00 00 00       	mov    $0x1,%esi
  4025be:	bf 02 00 00 00       	mov    $0x2,%edi
  4025c3:	e8 68 ec ff ff       	call   401230 <socket@plt>
  4025c8:	85 c0                	test   %eax,%eax
  4025ca:	0f 88 6c 02 00 00    	js     40283c <submitr+0x2c3>
  4025d0:	89 c3                	mov    %eax,%ebx
  4025d2:	4c 89 e7             	mov    %r12,%rdi
  4025d5:	e8 46 eb ff ff       	call   401120 <gethostbyname@plt>
  4025da:	48 85 c0             	test   %rax,%rax
  4025dd:	0f 84 a5 02 00 00    	je     402888 <submitr+0x30f>
  4025e3:	4c 8d bc 24 40 a0 00 	lea    0xa040(%rsp),%r15
  4025ea:	00 
  4025eb:	48 c7 84 24 40 a0 00 	movq   $0x0,0xa040(%rsp)
  4025f2:	00 00 00 00 00 
  4025f7:	48 c7 84 24 48 a0 00 	movq   $0x0,0xa048(%rsp)
  4025fe:	00 00 00 00 00 
  402603:	66 c7 84 24 40 a0 00 	movw   $0x2,0xa040(%rsp)
  40260a:	00 02 00 
  40260d:	48 8b 48 18          	mov    0x18(%rax),%rcx
  402611:	48 63 50 14          	movslq 0x14(%rax),%rdx
  402615:	48 8d bc 24 44 a0 00 	lea    0xa044(%rsp),%rdi
  40261c:	00 
  40261d:	48 8b 31             	mov    (%rcx),%rsi
  402620:	e8 7b eb ff ff       	call   4011a0 <memmove@plt>
  402625:	0f b7 74 24 10       	movzwl 0x10(%rsp),%esi
  40262a:	66 c1 c6 08          	rol    $0x8,%si
  40262e:	66 89 b4 24 42 a0 00 	mov    %si,0xa042(%rsp)
  402635:	00 
  402636:	ba 10 00 00 00       	mov    $0x10,%edx
  40263b:	4c 89 fe             	mov    %r15,%rsi
  40263e:	89 df                	mov    %ebx,%edi
  402640:	e8 cb eb ff ff       	call   401210 <connect@plt>
  402645:	85 c0                	test   %eax,%eax
  402647:	0f 88 a3 02 00 00    	js     4028f0 <submitr+0x377>
  40264d:	4c 89 ef             	mov    %r13,%rdi
  402650:	e8 4b ea ff ff       	call   4010a0 <strlen@plt>
  402655:	49 89 c7             	mov    %rax,%r15
  402658:	4c 89 f7             	mov    %r14,%rdi
  40265b:	e8 40 ea ff ff       	call   4010a0 <strlen@plt>
  402660:	48 89 44 24 10       	mov    %rax,0x10(%rsp)
  402665:	48 8b 7c 24 08       	mov    0x8(%rsp),%rdi
  40266a:	e8 31 ea ff ff       	call   4010a0 <strlen@plt>
  40266f:	48 03 44 24 10       	add    0x10(%rsp),%rax
  402674:	48 89 44 24 10       	mov    %rax,0x10(%rsp)
  402679:	48 8b 7c 24 18       	mov    0x18(%rsp),%rdi
  40267e:	e8 1d ea ff ff       	call   4010a0 <strlen@plt>
  402683:	48 03 44 24 10       	add    0x10(%rsp),%rax
  402688:	4b 8d 14 7f          	lea    (%r15,%r15,2),%rdx
  40268c:	48 8d 84 10 80 00 00 	lea    0x80(%rax,%rdx,1),%rax
  402693:	00 
  402694:	48 3d 00 20 00 00    	cmp    $0x2000,%rax
  40269a:	0f 87 aa 02 00 00    	ja     40294a <submitr+0x3d1>
  4026a0:	48 8d b4 24 30 40 00 	lea    0x4030(%rsp),%rsi
  4026a7:	00 
  4026a8:	b9 00 04 00 00       	mov    $0x400,%ecx
  4026ad:	b8 00 00 00 00       	mov    $0x0,%eax
  4026b2:	48 89 f7             	mov    %rsi,%rdi
  4026b5:	f3 48 ab             	rep stos %rax,%es:(%rdi)
  4026b8:	4c 89 ef             	mov    %r13,%rdi
  4026bb:	e8 89 fc ff ff       	call   402349 <urlencode>
  4026c0:	85 c0                	test   %eax,%eax
  4026c2:	0f 88 f5 02 00 00    	js     4029bd <submitr+0x444>
  4026c8:	4c 8d ac 24 30 60 00 	lea    0x6030(%rsp),%r13
  4026cf:	00 
  4026d0:	4d 89 e1             	mov    %r12,%r9
  4026d3:	4c 8d 84 24 30 40 00 	lea    0x4030(%rsp),%r8
  4026da:	00 
  4026db:	4c 89 f1             	mov    %r14,%rcx
  4026de:	48 8b 54 24 08       	mov    0x8(%rsp),%rdx
  4026e3:	48 8d 35 fe 0f 00 00 	lea    0xffe(%rip),%rsi        # 4036e8 <trans_char+0x38>
  4026ea:	4c 89 ef             	mov    %r13,%rdi
  4026ed:	b8 00 00 00 00       	mov    $0x0,%eax
  4026f2:	e8 f9 ea ff ff       	call   4011f0 <sprintf@plt>
  4026f7:	4c 89 ef             	mov    %r13,%rdi
  4026fa:	e8 a1 e9 ff ff       	call   4010a0 <strlen@plt>
  4026ff:	48 89 c2             	mov    %rax,%rdx
  402702:	4c 89 ee             	mov    %r13,%rsi
  402705:	89 df                	mov    %ebx,%edi
  402707:	e8 0a fd ff ff       	call   402416 <rio_writen>
  40270c:	48 85 c0             	test   %rax,%rax
  40270f:	0f 88 33 03 00 00    	js     402a48 <submitr+0x4cf>
  402715:	4c 8d a4 24 30 80 00 	lea    0x8030(%rsp),%r12
  40271c:	00 
  40271d:	89 de                	mov    %ebx,%esi
  40271f:	4c 89 e7             	mov    %r12,%rdi
  402722:	e8 e5 fb ff ff       	call   40230c <rio_readinitb>
  402727:	48 8d b4 24 30 60 00 	lea    0x6030(%rsp),%rsi
  40272e:	00 
  40272f:	ba 00 20 00 00       	mov    $0x2000,%edx
  402734:	4c 89 e7             	mov    %r12,%rdi
  402737:	e8 c1 fd ff ff       	call   4024fd <rio_readlineb>
  40273c:	48 85 c0             	test   %rax,%rax
  40273f:	0f 8e 72 03 00 00    	jle    402ab7 <submitr+0x53e>
  402745:	48 8d 8c 24 2c 20 00 	lea    0x202c(%rsp),%rcx
  40274c:	00 
  40274d:	48 8d 94 24 30 20 00 	lea    0x2030(%rsp),%rdx
  402754:	00 
  402755:	48 8d bc 24 30 60 00 	lea    0x6030(%rsp),%rdi
  40275c:	00 
  40275d:	4c 8d 44 24 20       	lea    0x20(%rsp),%r8
  402762:	48 8d 35 f3 0f 00 00 	lea    0xff3(%rip),%rsi        # 40375c <trans_char+0xac>
  402769:	b8 00 00 00 00       	mov    $0x0,%eax
  40276e:	e8 0d ea ff ff       	call   401180 <__isoc99_sscanf@plt>
  402773:	48 8d b4 24 30 60 00 	lea    0x6030(%rsp),%rsi
  40277a:	00 
  40277b:	b9 03 00 00 00       	mov    $0x3,%ecx
  402780:	48 8d 3d ec 0f 00 00 	lea    0xfec(%rip),%rdi        # 403773 <trans_char+0xc3>
  402787:	f3 a6                	repz cmpsb %es:(%rdi),%ds:(%rsi)
  402789:	0f 97 c0             	seta   %al
  40278c:	1c 00                	sbb    $0x0,%al
  40278e:	84 c0                	test   %al,%al
  402790:	0f 84 9f 03 00 00    	je     402b35 <submitr+0x5bc>
  402796:	48 8d b4 24 30 60 00 	lea    0x6030(%rsp),%rsi
  40279d:	00 
  40279e:	48 8d bc 24 30 80 00 	lea    0x8030(%rsp),%rdi
  4027a5:	00 
  4027a6:	ba 00 20 00 00       	mov    $0x2000,%edx
  4027ab:	e8 4d fd ff ff       	call   4024fd <rio_readlineb>
  4027b0:	48 85 c0             	test   %rax,%rax
  4027b3:	7f be                	jg     402773 <submitr+0x1fa>
  4027b5:	48 b8 45 72 72 6f 72 	movabs $0x43203a726f727245,%rax
  4027bc:	3a 20 43 
  4027bf:	48 ba 6c 69 65 6e 74 	movabs $0x6e7520746e65696c,%rdx
  4027c6:	20 75 6e 
  4027c9:	48 89 45 00          	mov    %rax,0x0(%rbp)
  4027cd:	48 89 55 08          	mov    %rdx,0x8(%rbp)
  4027d1:	48 b8 61 62 6c 65 20 	movabs $0x206f7420656c6261,%rax
  4027d8:	74 6f 20 
  4027db:	48 ba 72 65 61 64 20 	movabs $0x6165682064616572,%rdx
  4027e2:	68 65 61 
  4027e5:	48 89 45 10          	mov    %rax,0x10(%rbp)
  4027e9:	48 89 55 18          	mov    %rdx,0x18(%rbp)
  4027ed:	48 b8 64 65 72 73 20 	movabs $0x6f72662073726564,%rax
  4027f4:	66 72 6f 
  4027f7:	48 ba 6d 20 74 68 65 	movabs $0x657220656874206d,%rdx
  4027fe:	20 72 65 
  402801:	48 89 45 20          	mov    %rax,0x20(%rbp)
  402805:	48 89 55 28          	mov    %rdx,0x28(%rbp)
  402809:	48 b8 73 75 6c 74 20 	movabs $0x72657320746c7573,%rax
  402810:	73 65 72 
  402813:	48 89 45 30          	mov    %rax,0x30(%rbp)
  402817:	c7 45 38 76 65 72 00 	movl   $0x726576,0x38(%rbp)
  40281e:	89 df                	mov    %ebx,%edi
  402820:	e8 cb e8 ff ff       	call   4010f0 <close@plt>
  402825:	b8 ff ff ff ff       	mov    $0xffffffff,%eax
  40282a:	48 81 c4 58 a0 00 00 	add    $0xa058,%rsp
  402831:	5b                   	pop    %rbx
  402832:	5d                   	pop    %rbp
  402833:	41 5c                	pop    %r12
  402835:	41 5d                	pop    %r13
  402837:	41 5e                	pop    %r14
  402839:	41 5f                	pop    %r15
  40283b:	c3                   	ret    
  40283c:	48 b8 45 72 72 6f 72 	movabs $0x43203a726f727245,%rax
  402843:	3a 20 43 
  402846:	48 ba 6c 69 65 6e 74 	movabs $0x6e7520746e65696c,%rdx
  40284d:	20 75 6e 
  402850:	48 89 45 00          	mov    %rax,0x0(%rbp)
  402854:	48 89 55 08          	mov    %rdx,0x8(%rbp)
  402858:	48 b8 61 62 6c 65 20 	movabs $0x206f7420656c6261,%rax
  40285f:	74 6f 20 
  402862:	48 ba 63 72 65 61 74 	movabs $0x7320657461657263,%rdx
  402869:	65 20 73 
  40286c:	48 89 45 10          	mov    %rax,0x10(%rbp)
  402870:	48 89 55 18          	mov    %rdx,0x18(%rbp)
  402874:	c7 45 20 6f 63 6b 65 	movl   $0x656b636f,0x20(%rbp)
  40287b:	66 c7 45 24 74 00    	movw   $0x74,0x24(%rbp)
  402881:	b8 ff ff ff ff       	mov    $0xffffffff,%eax
  402886:	eb a2                	jmp    40282a <submitr+0x2b1>
  402888:	48 b8 45 72 72 6f 72 	movabs $0x44203a726f727245,%rax
  40288f:	3a 20 44 
  402892:	48 ba 4e 53 20 69 73 	movabs $0x6e7520736920534e,%rdx
  402899:	20 75 6e 
  40289c:	48 89 45 00          	mov    %rax,0x0(%rbp)
  4028a0:	48 89 55 08          	mov    %rdx,0x8(%rbp)
  4028a4:	48 b8 61 62 6c 65 20 	movabs $0x206f7420656c6261,%rax
  4028ab:	74 6f 20 
  4028ae:	48 ba 72 65 73 6f 6c 	movabs $0x2065766c6f736572,%rdx
  4028b5:	76 65 20 
  4028b8:	48 89 45 10          	mov    %rax,0x10(%rbp)
  4028bc:	48 89 55 18          	mov    %rdx,0x18(%rbp)
  4028c0:	48 b8 73 65 72 76 65 	movabs $0x6120726576726573,%rax
  4028c7:	72 20 61 
  4028ca:	48 89 45 20          	mov    %rax,0x20(%rbp)
  4028ce:	c7 45 28 64 64 72 65 	movl   $0x65726464,0x28(%rbp)
  4028d5:	66 c7 45 2c 73 73    	movw   $0x7373,0x2c(%rbp)
  4028db:	c6 45 2e 00          	movb   $0x0,0x2e(%rbp)
  4028df:	89 df                	mov    %ebx,%edi
  4028e1:	e8 0a e8 ff ff       	call   4010f0 <close@plt>
  4028e6:	b8 ff ff ff ff       	mov    $0xffffffff,%eax
  4028eb:	e9 3a ff ff ff       	jmp    40282a <submitr+0x2b1>
  4028f0:	48 b8 45 72 72 6f 72 	movabs $0x55203a726f727245,%rax
  4028f7:	3a 20 55 
  4028fa:	48 ba 6e 61 62 6c 65 	movabs $0x6f7420656c62616e,%rdx
  402901:	20 74 6f 
  402904:	48 89 45 00          	mov    %rax,0x0(%rbp)
  402908:	48 89 55 08          	mov    %rdx,0x8(%rbp)
  40290c:	48 b8 20 63 6f 6e 6e 	movabs $0x7463656e6e6f6320,%rax
  402913:	65 63 74 
  402916:	48 ba 20 74 6f 20 74 	movabs $0x20656874206f7420,%rdx
  40291d:	68 65 20 
  402920:	48 89 45 10          	mov    %rax,0x10(%rbp)
  402924:	48 89 55 18          	mov    %rdx,0x18(%rbp)
  402928:	c7 45 20 73 65 72 76 	movl   $0x76726573,0x20(%rbp)
  40292f:	66 c7 45 24 65 72    	movw   $0x7265,0x24(%rbp)
  402935:	c6 45 26 00          	movb   $0x0,0x26(%rbp)
  402939:	89 df                	mov    %ebx,%edi
  40293b:	e8 b0 e7 ff ff       	call   4010f0 <close@plt>
  402940:	b8 ff ff ff ff       	mov    $0xffffffff,%eax
  402945:	e9 e0 fe ff ff       	jmp    40282a <submitr+0x2b1>
  40294a:	48 b8 45 72 72 6f 72 	movabs $0x52203a726f727245,%rax
  402951:	3a 20 52 
  402954:	48 ba 65 73 75 6c 74 	movabs $0x747320746c757365,%rdx
  40295b:	20 73 74 
  40295e:	48 89 45 00          	mov    %rax,0x0(%rbp)
  402962:	48 89 55 08          	mov    %rdx,0x8(%rbp)
  402966:	48 b8 72 69 6e 67 20 	movabs $0x6f6f7420676e6972,%rax
  40296d:	74 6f 6f 
  402970:	48 ba 20 6c 61 72 67 	movabs $0x202e656772616c20,%rdx
  402977:	65 2e 20 
  40297a:	48 89 45 10          	mov    %rax,0x10(%rbp)
  40297e:	48 89 55 18          	mov    %rdx,0x18(%rbp)
  402982:	48 b8 49 6e 63 72 65 	movabs $0x6573616572636e49,%rax
  402989:	61 73 65 
  40298c:	48 ba 20 53 55 42 4d 	movabs $0x5254494d42555320,%rdx
  402993:	49 54 52 
  402996:	48 89 45 20          	mov    %rax,0x20(%rbp)
  40299a:	48 89 55 28          	mov    %rdx,0x28(%rbp)
  40299e:	48 b8 5f 4d 41 58 42 	movabs $0x46554258414d5f,%rax
  4029a5:	55 46 00 
  4029a8:	48 89 45 30          	mov    %rax,0x30(%rbp)
  4029ac:	89 df                	mov    %ebx,%edi
  4029ae:	e8 3d e7 ff ff       	call   4010f0 <close@plt>
  4029b3:	b8 ff ff ff ff       	mov    $0xffffffff,%eax
  4029b8:	e9 6d fe ff ff       	jmp    40282a <submitr+0x2b1>
  4029bd:	48 b8 45 72 72 6f 72 	movabs $0x52203a726f727245,%rax
  4029c4:	3a 20 52 
  4029c7:	48 ba 65 73 75 6c 74 	movabs $0x747320746c757365,%rdx
  4029ce:	20 73 74 
  4029d1:	48 89 45 00          	mov    %rax,0x0(%rbp)
  4029d5:	48 89 55 08          	mov    %rdx,0x8(%rbp)
  4029d9:	48 b8 72 69 6e 67 20 	movabs $0x6e6f6320676e6972,%rax
  4029e0:	63 6f 6e 
  4029e3:	48 ba 74 61 69 6e 73 	movabs $0x6e6120736e696174,%rdx
  4029ea:	20 61 6e 
  4029ed:	48 89 45 10          	mov    %rax,0x10(%rbp)
  4029f1:	48 89 55 18          	mov    %rdx,0x18(%rbp)
  4029f5:	48 b8 20 69 6c 6c 65 	movabs $0x6c6167656c6c6920,%rax
  4029fc:	67 61 6c 
  4029ff:	48 ba 20 6f 72 20 75 	movabs $0x72706e7520726f20,%rdx
  402a06:	6e 70 72 
  402a09:	48 89 45 20          	mov    %rax,0x20(%rbp)
  402a0d:	48 89 55 28          	mov    %rdx,0x28(%rbp)
  402a11:	48 b8 69 6e 74 61 62 	movabs $0x20656c6261746e69,%rax
  402a18:	6c 65 20 
  402a1b:	48 ba 63 68 61 72 61 	movabs $0x6574636172616863,%rdx
  402a22:	63 74 65 
  402a25:	48 89 45 30          	mov    %rax,0x30(%rbp)
  402a29:	48 89 55 38          	mov    %rdx,0x38(%rbp)
  402a2d:	66 c7 45 40 72 2e    	movw   $0x2e72,0x40(%rbp)
  402a33:	c6 45 42 00          	movb   $0x0,0x42(%rbp)
  402a37:	89 df                	mov    %ebx,%edi
  402a39:	e8 b2 e6 ff ff       	call   4010f0 <close@plt>
  402a3e:	b8 ff ff ff ff       	mov    $0xffffffff,%eax
  402a43:	e9 e2 fd ff ff       	jmp    40282a <submitr+0x2b1>
  402a48:	48 b8 45 72 72 6f 72 	movabs $0x43203a726f727245,%rax
  402a4f:	3a 20 43 
  402a52:	48 ba 6c 69 65 6e 74 	movabs $0x6e7520746e65696c,%rdx
  402a59:	20 75 6e 
  402a5c:	48 89 45 00          	mov    %rax,0x0(%rbp)
  402a60:	48 89 55 08          	mov    %rdx,0x8(%rbp)
  402a64:	48 b8 61 62 6c 65 20 	movabs $0x206f7420656c6261,%rax
  402a6b:	74 6f 20 
  402a6e:	48 ba 77 72 69 74 65 	movabs $0x6f74206574697277,%rdx
  402a75:	20 74 6f 
  402a78:	48 89 45 10          	mov    %rax,0x10(%rbp)
  402a7c:	48 89 55 18          	mov    %rdx,0x18(%rbp)
  402a80:	48 b8 20 74 68 65 20 	movabs $0x7365722065687420,%rax
  402a87:	72 65 73 
  402a8a:	48 ba 75 6c 74 20 73 	movabs $0x7672657320746c75,%rdx
  402a91:	65 72 76 
  402a94:	48 89 45 20          	mov    %rax,0x20(%rbp)
  402a98:	48 89 55 28          	mov    %rdx,0x28(%rbp)
  402a9c:	66 c7 45 30 65 72    	movw   $0x7265,0x30(%rbp)
  402aa2:	c6 45 32 00          	movb   $0x0,0x32(%rbp)
  402aa6:	89 df                	mov    %ebx,%edi
  402aa8:	e8 43 e6 ff ff       	call   4010f0 <close@plt>
  402aad:	b8 ff ff ff ff       	mov    $0xffffffff,%eax
  402ab2:	e9 73 fd ff ff       	jmp    40282a <submitr+0x2b1>
  402ab7:	48 b8 45 72 72 6f 72 	movabs $0x43203a726f727245,%rax
  402abe:	3a 20 43 
  402ac1:	48 ba 6c 69 65 6e 74 	movabs $0x6e7520746e65696c,%rdx
  402ac8:	20 75 6e 
  402acb:	48 89 45 00          	mov    %rax,0x0(%rbp)
  402acf:	48 89 55 08          	mov    %rdx,0x8(%rbp)
  402ad3:	48 b8 61 62 6c 65 20 	movabs $0x206f7420656c6261,%rax
  402ada:	74 6f 20 
  402add:	48 ba 72 65 61 64 20 	movabs $0x7269662064616572,%rdx
  402ae4:	66 69 72 
  402ae7:	48 89 45 10          	mov    %rax,0x10(%rbp)
  402aeb:	48 89 55 18          	mov    %rdx,0x18(%rbp)
  402aef:	48 b8 73 74 20 68 65 	movabs $0x6564616568207473,%rax
  402af6:	61 64 65 
  402af9:	48 ba 72 20 66 72 6f 	movabs $0x72206d6f72662072,%rdx
  402b00:	6d 20 72 
  402b03:	48 89 45 20          	mov    %rax,0x20(%rbp)
  402b07:	48 89 55 28          	mov    %rdx,0x28(%rbp)
  402b0b:	48 b8 65 73 75 6c 74 	movabs $0x657320746c757365,%rax
  402b12:	20 73 65 
  402b15:	48 89 45 30          	mov    %rax,0x30(%rbp)
  402b19:	c7 45 38 72 76 65 72 	movl   $0x72657672,0x38(%rbp)
  402b20:	c6 45 3c 00          	movb   $0x0,0x3c(%rbp)
  402b24:	89 df                	mov    %ebx,%edi
  402b26:	e8 c5 e5 ff ff       	call   4010f0 <close@plt>
  402b2b:	b8 ff ff ff ff       	mov    $0xffffffff,%eax
  402b30:	e9 f5 fc ff ff       	jmp    40282a <submitr+0x2b1>
  402b35:	48 8d b4 24 30 60 00 	lea    0x6030(%rsp),%rsi
  402b3c:	00 
  402b3d:	48 8d bc 24 30 80 00 	lea    0x8030(%rsp),%rdi
  402b44:	00 
  402b45:	ba 00 20 00 00       	mov    $0x2000,%edx
  402b4a:	e8 ae f9 ff ff       	call   4024fd <rio_readlineb>
  402b4f:	48 85 c0             	test   %rax,%rax
  402b52:	0f 8e 97 00 00 00    	jle    402bef <submitr+0x676>
  402b58:	8b 94 24 2c 20 00 00 	mov    0x202c(%rsp),%edx
  402b5f:	81 fa c8 00 00 00    	cmp    $0xc8,%edx
  402b65:	0f 85 08 01 00 00    	jne    402c73 <submitr+0x6fa>
  402b6b:	48 8d b4 24 30 60 00 	lea    0x6030(%rsp),%rsi
  402b72:	00 
  402b73:	48 89 ef             	mov    %rbp,%rdi
  402b76:	e8 f5 e4 ff ff       	call   401070 <strcpy@plt>
  402b7b:	89 df                	mov    %ebx,%edi
  402b7d:	e8 6e e5 ff ff       	call   4010f0 <close@plt>
  402b82:	b9 04 00 00 00       	mov    $0x4,%ecx
  402b87:	48 8d 3d df 0b 00 00 	lea    0xbdf(%rip),%rdi        # 40376d <trans_char+0xbd>
  402b8e:	48 89 ee             	mov    %rbp,%rsi
  402b91:	f3 a6                	repz cmpsb %es:(%rdi),%ds:(%rsi)
  402b93:	0f 97 c0             	seta   %al
  402b96:	1c 00                	sbb    $0x0,%al
  402b98:	0f be c0             	movsbl %al,%eax
  402b9b:	85 c0                	test   %eax,%eax
  402b9d:	0f 84 87 fc ff ff    	je     40282a <submitr+0x2b1>
  402ba3:	b9 05 00 00 00       	mov    $0x5,%ecx
  402ba8:	48 8d 3d c2 0b 00 00 	lea    0xbc2(%rip),%rdi        # 403771 <trans_char+0xc1>
  402baf:	48 89 ee             	mov    %rbp,%rsi
  402bb2:	f3 a6                	repz cmpsb %es:(%rdi),%ds:(%rsi)
  402bb4:	0f 97 c0             	seta   %al
  402bb7:	1c 00                	sbb    $0x0,%al
  402bb9:	0f be c0             	movsbl %al,%eax
  402bbc:	85 c0                	test   %eax,%eax
  402bbe:	0f 84 66 fc ff ff    	je     40282a <submitr+0x2b1>
  402bc4:	b9 03 00 00 00       	mov    $0x3,%ecx
  402bc9:	48 8d 3d a6 0b 00 00 	lea    0xba6(%rip),%rdi        # 403776 <trans_char+0xc6>
  402bd0:	48 89 ee             	mov    %rbp,%rsi
  402bd3:	f3 a6                	repz cmpsb %es:(%rdi),%ds:(%rsi)
  402bd5:	0f 97 c0             	seta   %al
  402bd8:	1c 00                	sbb    $0x0,%al
  402bda:	0f be c0             	movsbl %al,%eax
  402bdd:	85 c0                	test   %eax,%eax
  402bdf:	0f 84 45 fc ff ff    	je     40282a <submitr+0x2b1>
  402be5:	b8 ff ff ff ff       	mov    $0xffffffff,%eax
  402bea:	e9 3b fc ff ff       	jmp    40282a <submitr+0x2b1>
  402bef:	48 b8 45 72 72 6f 72 	movabs $0x43203a726f727245,%rax
  402bf6:	3a 20 43 
  402bf9:	48 ba 6c 69 65 6e 74 	movabs $0x6e7520746e65696c,%rdx
  402c00:	20 75 6e 
  402c03:	48 89 45 00          	mov    %rax,0x0(%rbp)
  402c07:	48 89 55 08          	mov    %rdx,0x8(%rbp)
  402c0b:	48 b8 61 62 6c 65 20 	movabs $0x206f7420656c6261,%rax
  402c12:	74 6f 20 
  402c15:	48 ba 72 65 61 64 20 	movabs $0x6174732064616572,%rdx
  402c1c:	73 74 61 
  402c1f:	48 89 45 10          	mov    %rax,0x10(%rbp)
  402c23:	48 89 55 18          	mov    %rdx,0x18(%rbp)
  402c27:	48 b8 74 75 73 20 6d 	movabs $0x7373656d20737574,%rax
  402c2e:	65 73 73 
  402c31:	48 ba 61 67 65 20 66 	movabs $0x6d6f726620656761,%rdx
  402c38:	72 6f 6d 
  402c3b:	48 89 45 20          	mov    %rax,0x20(%rbp)
  402c3f:	48 89 55 28          	mov    %rdx,0x28(%rbp)
  402c43:	48 b8 20 72 65 73 75 	movabs $0x20746c7573657220,%rax
  402c4a:	6c 74 20 
  402c4d:	48 89 45 30          	mov    %rax,0x30(%rbp)
  402c51:	c7 45 38 73 65 72 76 	movl   $0x76726573,0x38(%rbp)
  402c58:	66 c7 45 3c 65 72    	movw   $0x7265,0x3c(%rbp)
  402c5e:	c6 45 3e 00          	movb   $0x0,0x3e(%rbp)
  402c62:	89 df                	mov    %ebx,%edi
  402c64:	e8 87 e4 ff ff       	call   4010f0 <close@plt>
  402c69:	b8 ff ff ff ff       	mov    $0xffffffff,%eax
  402c6e:	e9 b7 fb ff ff       	jmp    40282a <submitr+0x2b1>
  402c73:	48 8d 4c 24 20       	lea    0x20(%rsp),%rcx
  402c78:	48 8d 35 a9 0a 00 00 	lea    0xaa9(%rip),%rsi        # 403728 <trans_char+0x78>
  402c7f:	48 89 ef             	mov    %rbp,%rdi
  402c82:	b8 00 00 00 00       	mov    $0x0,%eax
  402c87:	e8 64 e5 ff ff       	call   4011f0 <sprintf@plt>
  402c8c:	89 df                	mov    %ebx,%edi
  402c8e:	e8 5d e4 ff ff       	call   4010f0 <close@plt>
  402c93:	b8 ff ff ff ff       	mov    $0xffffffff,%eax
  402c98:	e9 8d fb ff ff       	jmp    40282a <submitr+0x2b1>

0000000000402c9d <init_timeout>:
  402c9d:	85 ff                	test   %edi,%edi
  402c9f:	74 26                	je     402cc7 <init_timeout+0x2a>
  402ca1:	53                   	push   %rbx
  402ca2:	89 fb                	mov    %edi,%ebx
  402ca4:	78 1a                	js     402cc0 <init_timeout+0x23>
  402ca6:	48 8d 35 71 f6 ff ff 	lea    -0x98f(%rip),%rsi        # 40231e <sigalrm_handler>
  402cad:	bf 0e 00 00 00       	mov    $0xe,%edi
  402cb2:	e8 59 e4 ff ff       	call   401110 <signal@plt>
  402cb7:	89 df                	mov    %ebx,%edi
  402cb9:	e8 22 e4 ff ff       	call   4010e0 <alarm@plt>
  402cbe:	5b                   	pop    %rbx
  402cbf:	c3                   	ret    
  402cc0:	bb 00 00 00 00       	mov    $0x0,%ebx
  402cc5:	eb df                	jmp    402ca6 <init_timeout+0x9>
  402cc7:	c3                   	ret    

0000000000402cc8 <init_driver>:
  402cc8:	41 54                	push   %r12
  402cca:	55                   	push   %rbp
  402ccb:	53                   	push   %rbx
  402ccc:	48 83 ec 10          	sub    $0x10,%rsp
  402cd0:	48 89 fd             	mov    %rdi,%rbp
  402cd3:	be 01 00 00 00       	mov    $0x1,%esi
  402cd8:	bf 0d 00 00 00       	mov    $0xd,%edi
  402cdd:	e8 2e e4 ff ff       	call   401110 <signal@plt>
  402ce2:	be 01 00 00 00       	mov    $0x1,%esi
  402ce7:	bf 1d 00 00 00       	mov    $0x1d,%edi
  402cec:	e8 1f e4 ff ff       	call   401110 <signal@plt>
  402cf1:	be 01 00 00 00       	mov    $0x1,%esi
  402cf6:	bf 1d 00 00 00       	mov    $0x1d,%edi
  402cfb:	e8 10 e4 ff ff       	call   401110 <signal@plt>
  402d00:	ba 00 00 00 00       	mov    $0x0,%edx
  402d05:	be 01 00 00 00       	mov    $0x1,%esi
  402d0a:	bf 02 00 00 00       	mov    $0x2,%edi
  402d0f:	e8 1c e5 ff ff       	call   401230 <socket@plt>
  402d14:	85 c0                	test   %eax,%eax
  402d16:	0f 88 83 00 00 00    	js     402d9f <init_driver+0xd7>
  402d1c:	89 c3                	mov    %eax,%ebx
  402d1e:	48 8d 3d 54 0a 00 00 	lea    0xa54(%rip),%rdi        # 403779 <trans_char+0xc9>
  402d25:	e8 f6 e3 ff ff       	call   401120 <gethostbyname@plt>
  402d2a:	48 85 c0             	test   %rax,%rax
  402d2d:	0f 84 b8 00 00 00    	je     402deb <init_driver+0x123>
  402d33:	49 89 e4             	mov    %rsp,%r12
  402d36:	48 c7 04 24 00 00 00 	movq   $0x0,(%rsp)
  402d3d:	00 
  402d3e:	48 c7 44 24 08 00 00 	movq   $0x0,0x8(%rsp)
  402d45:	00 00 
  402d47:	66 c7 04 24 02 00    	movw   $0x2,(%rsp)
  402d4d:	48 8b 48 18          	mov    0x18(%rax),%rcx
  402d51:	48 63 50 14          	movslq 0x14(%rax),%rdx
  402d55:	48 8d 7c 24 04       	lea    0x4(%rsp),%rdi
  402d5a:	48 8b 31             	mov    (%rcx),%rsi
  402d5d:	e8 3e e4 ff ff       	call   4011a0 <memmove@plt>
  402d62:	66 c7 44 24 02 3c a4 	movw   $0xa43c,0x2(%rsp)
  402d69:	ba 10 00 00 00       	mov    $0x10,%edx
  402d6e:	4c 89 e6             	mov    %r12,%rsi
  402d71:	89 df                	mov    %ebx,%edi
  402d73:	e8 98 e4 ff ff       	call   401210 <connect@plt>
  402d78:	85 c0                	test   %eax,%eax
  402d7a:	0f 88 d3 00 00 00    	js     402e53 <init_driver+0x18b>
  402d80:	89 df                	mov    %ebx,%edi
  402d82:	e8 69 e3 ff ff       	call   4010f0 <close@plt>
  402d87:	66 c7 45 00 4f 4b    	movw   $0x4b4f,0x0(%rbp)
  402d8d:	c6 45 02 00          	movb   $0x0,0x2(%rbp)
  402d91:	b8 00 00 00 00       	mov    $0x0,%eax
  402d96:	48 83 c4 10          	add    $0x10,%rsp
  402d9a:	5b                   	pop    %rbx
  402d9b:	5d                   	pop    %rbp
  402d9c:	41 5c                	pop    %r12
  402d9e:	c3                   	ret    
  402d9f:	48 b8 45 72 72 6f 72 	movabs $0x43203a726f727245,%rax
  402da6:	3a 20 43 
  402da9:	48 ba 6c 69 65 6e 74 	movabs $0x6e7520746e65696c,%rdx
  402db0:	20 75 6e 
  402db3:	48 89 45 00          	mov    %rax,0x0(%rbp)
  402db7:	48 89 55 08          	mov    %rdx,0x8(%rbp)
  402dbb:	48 b8 61 62 6c 65 20 	movabs $0x206f7420656c6261,%rax
  402dc2:	74 6f 20 
  402dc5:	48 ba 63 72 65 61 74 	movabs $0x7320657461657263,%rdx
  402dcc:	65 20 73 
  402dcf:	48 89 45 10          	mov    %rax,0x10(%rbp)
  402dd3:	48 89 55 18          	mov    %rdx,0x18(%rbp)
  402dd7:	c7 45 20 6f 63 6b 65 	movl   $0x656b636f,0x20(%rbp)
  402dde:	66 c7 45 24 74 00    	movw   $0x74,0x24(%rbp)
  402de4:	b8 ff ff ff ff       	mov    $0xffffffff,%eax
  402de9:	eb ab                	jmp    402d96 <init_driver+0xce>
  402deb:	48 b8 45 72 72 6f 72 	movabs $0x44203a726f727245,%rax
  402df2:	3a 20 44 
  402df5:	48 ba 4e 53 20 69 73 	movabs $0x6e7520736920534e,%rdx
  402dfc:	20 75 6e 
  402dff:	48 89 45 00          	mov    %rax,0x0(%rbp)
  402e03:	48 89 55 08          	mov    %rdx,0x8(%rbp)
  402e07:	48 b8 61 62 6c 65 20 	movabs $0x206f7420656c6261,%rax
  402e0e:	74 6f 20 
  402e11:	48 ba 72 65 73 6f 6c 	movabs $0x2065766c6f736572,%rdx
  402e18:	76 65 20 
  402e1b:	48 89 45 10          	mov    %rax,0x10(%rbp)
  402e1f:	48 89 55 18          	mov    %rdx,0x18(%rbp)
  402e23:	48 b8 73 65 72 76 65 	movabs $0x6120726576726573,%rax
  402e2a:	72 20 61 
  402e2d:	48 89 45 20          	mov    %rax,0x20(%rbp)
  402e31:	c7 45 28 64 64 72 65 	movl   $0x65726464,0x28(%rbp)
  402e38:	66 c7 45 2c 73 73    	movw   $0x7373,0x2c(%rbp)
  402e3e:	c6 45 2e 00          	movb   $0x0,0x2e(%rbp)
  402e42:	89 df                	mov    %ebx,%edi
  402e44:	e8 a7 e2 ff ff       	call   4010f0 <close@plt>
  402e49:	b8 ff ff ff ff       	mov    $0xffffffff,%eax
  402e4e:	e9 43 ff ff ff       	jmp    402d96 <init_driver+0xce>
  402e53:	48 b8 32 30 32 2e 31 	movabs $0x2e3032312e323032,%rax
  402e5a:	32 30 2e 
  402e5d:	48 89 45 00          	mov    %rax,0x0(%rbp)
  402e61:	c7 45 08 34 30 2e 38 	movl   $0x382e3034,0x8(%rbp)
  402e68:	66 c7 45 0c 35 00    	movw   $0x35,0xc(%rbp)
  402e6e:	48 b8 45 72 72 6f 72 	movabs $0x55203a726f727245,%rax
  402e75:	3a 20 55 
  402e78:	48 ba 6e 61 62 6c 65 	movabs $0x6f7420656c62616e,%rdx
  402e7f:	20 74 6f 
  402e82:	48 89 45 00          	mov    %rax,0x0(%rbp)
  402e86:	48 89 55 08          	mov    %rdx,0x8(%rbp)
  402e8a:	48 b8 20 63 6f 6e 6e 	movabs $0x7463656e6e6f6320,%rax
  402e91:	65 63 74 
  402e94:	48 ba 20 74 6f 20 73 	movabs $0x76726573206f7420,%rdx
  402e9b:	65 72 76 
  402e9e:	48 89 45 10          	mov    %rax,0x10(%rbp)
  402ea2:	48 89 55 18          	mov    %rdx,0x18(%rbp)
  402ea6:	66 c7 45 20 65 72    	movw   $0x7265,0x20(%rbp)
  402eac:	c6 45 22 00          	movb   $0x0,0x22(%rbp)
  402eb0:	89 df                	mov    %ebx,%edi
  402eb2:	e8 39 e2 ff ff       	call   4010f0 <close@plt>
  402eb7:	b8 ff ff ff ff       	mov    $0xffffffff,%eax
  402ebc:	e9 d5 fe ff ff       	jmp    402d96 <init_driver+0xce>

0000000000402ec1 <driver_post>:
  402ec1:	53                   	push   %rbx
  402ec2:	4c 89 cb             	mov    %r9,%rbx
  402ec5:	45 85 c0             	test   %r8d,%r8d
  402ec8:	75 18                	jne    402ee2 <driver_post+0x21>
  402eca:	48 85 ff             	test   %rdi,%rdi
  402ecd:	74 05                	je     402ed4 <driver_post+0x13>
  402ecf:	80 3f 00             	cmpb   $0x0,(%rdi)
  402ed2:	75 32                	jne    402f06 <driver_post+0x45>
  402ed4:	66 c7 03 4f 4b       	movw   $0x4b4f,(%rbx)
  402ed9:	c6 43 02 00          	movb   $0x0,0x2(%rbx)
  402edd:	44 89 c0             	mov    %r8d,%eax
  402ee0:	5b                   	pop    %rbx
  402ee1:	c3                   	ret    
  402ee2:	48 89 ce             	mov    %rcx,%rsi
  402ee5:	48 8d 3d 9b 08 00 00 	lea    0x89b(%rip),%rdi        # 403787 <trans_char+0xd7>
  402eec:	b8 00 00 00 00       	mov    $0x0,%eax
  402ef1:	e8 ca e1 ff ff       	call   4010c0 <printf@plt>
  402ef6:	66 c7 03 4f 4b       	movw   $0x4b4f,(%rbx)
  402efb:	c6 43 02 00          	movb   $0x0,0x2(%rbx)
  402eff:	b8 00 00 00 00       	mov    $0x0,%eax
  402f04:	eb da                	jmp    402ee0 <driver_post+0x1f>
  402f06:	48 83 ec 08          	sub    $0x8,%rsp
  402f0a:	41 51                	push   %r9
  402f0c:	49 89 c9             	mov    %rcx,%r9
  402f0f:	49 89 d0             	mov    %rdx,%r8
  402f12:	48 89 f9             	mov    %rdi,%rcx
  402f15:	48 89 f2             	mov    %rsi,%rdx
  402f18:	be a4 3c 00 00       	mov    $0x3ca4,%esi
  402f1d:	48 8d 3d 55 08 00 00 	lea    0x855(%rip),%rdi        # 403779 <trans_char+0xc9>
  402f24:	e8 50 f6 ff ff       	call   402579 <submitr>
  402f29:	48 83 c4 10          	add    $0x10,%rsp
  402f2d:	eb b1                	jmp    402ee0 <driver_post+0x1f>

0000000000402f2f <check>:
  402f2f:	89 f8                	mov    %edi,%eax
  402f31:	c1 e8 1c             	shr    $0x1c,%eax
  402f34:	74 1d                	je     402f53 <check+0x24>
  402f36:	b9 00 00 00 00       	mov    $0x0,%ecx
  402f3b:	83 f9 1f             	cmp    $0x1f,%ecx
  402f3e:	7f 0d                	jg     402f4d <check+0x1e>
  402f40:	89 f8                	mov    %edi,%eax
  402f42:	d3 e8                	shr    %cl,%eax
  402f44:	3c 0a                	cmp    $0xa,%al
  402f46:	74 11                	je     402f59 <check+0x2a>
  402f48:	83 c1 08             	add    $0x8,%ecx
  402f4b:	eb ee                	jmp    402f3b <check+0xc>
  402f4d:	b8 01 00 00 00       	mov    $0x1,%eax
  402f52:	c3                   	ret    
  402f53:	b8 00 00 00 00       	mov    $0x0,%eax
  402f58:	c3                   	ret    
  402f59:	b8 00 00 00 00       	mov    $0x0,%eax
  402f5e:	c3                   	ret    

0000000000402f5f <gencookie>:
  402f5f:	53                   	push   %rbx
  402f60:	83 c7 01             	add    $0x1,%edi
  402f63:	e8 e8 e0 ff ff       	call   401050 <srandom@plt>
  402f68:	e8 03 e2 ff ff       	call   401170 <random@plt>
  402f6d:	48 89 c7             	mov    %rax,%rdi
  402f70:	89 c3                	mov    %eax,%ebx
  402f72:	e8 b8 ff ff ff       	call   402f2f <check>
  402f77:	85 c0                	test   %eax,%eax
  402f79:	74 ed                	je     402f68 <gencookie+0x9>
  402f7b:	89 d8                	mov    %ebx,%eax
  402f7d:	5b                   	pop    %rbx
  402f7e:	c3                   	ret    

Disassembly of section .fini:

0000000000402f80 <_fini>:
  402f80:	48 83 ec 08          	sub    $0x8,%rsp
  402f84:	48 83 c4 08          	add    $0x8,%rsp
  402f88:	c3                   	ret    
